
HOST_KM_BRIDGE.elf:     file format elf32-littleriscv
HOST_KM_BRIDGE.elf
architecture: riscv:rv32, flags 0x00000112:
EXEC_P, HAS_SYMS, D_PAGED
start address 0x00000000

Program Header:
    LOAD off    0x00001000 vaddr 0x00000000 paddr 0x00000000 align 2**12
         filesz 0x00005fc4 memsz 0x00005fc4 flags r-x
    LOAD off    0x00007000 vaddr 0x20000000 paddr 0x00005fc4 align 2**12
         filesz 0x00000100 memsz 0x000014d4 flags rw-
    LOAD off    0x00007800 vaddr 0x20007800 paddr 0x20007800 align 2**12
         filesz 0x00000000 memsz 0x00000800 flags rw-

Sections:
Idx Name          Size      VMA       LMA       File off  Algn
  0 .init         00000004  00000000  00000000  00001000  2**1
                  CONTENTS, ALLOC, LOAD, READONLY, CODE
  1 .vector       000001bc  00000004  00000004  00001004  2**1
                  CONTENTS, ALLOC, LOAD, READONLY, CODE
  2 .text         00005e04  000001c0  000001c0  000011c0  2**2
                  CONTENTS, ALLOC, LOAD, READONLY, CODE
  3 .fini         00000000  00005fc4  00005fc4  00007100  2**0
                  CONTENTS, ALLOC, LOAD, CODE
  4 .dalign       00000000  20000000  20000000  00007100  2**0
                  CONTENTS
  5 .dlalign      00000000  00005fc4  00005fc4  00007100  2**0
                  CONTENTS
  6 .data         00000100  20000000  00005fc4  00007000  2**2
                  CONTENTS, ALLOC, LOAD, DATA
  7 .bss          000013d4  20000100  000060c4  00007100  2**2
                  ALLOC
  8 .stack        00000800  20007800  20007800  00007800  2**0
                  ALLOC
  9 .debug_info   00017d1f  00000000  00000000  00007100  2**0
                  CONTENTS, READONLY, DEBUGGING
 10 .debug_abbrev 000035ca  00000000  00000000  0001ee1f  2**0
                  CONTENTS, READONLY, DEBUGGING
 11 .debug_loc    00007855  00000000  00000000  000223e9  2**0
                  CONTENTS, READONLY, DEBUGGING
 12 .debug_aranges 00000a60  00000000  00000000  00029c40  2**3
                  CONTENTS, READONLY, DEBUGGING
 13 .debug_ranges 00000d38  00000000  00000000  0002a6a0  2**3
                  CONTENTS, READONLY, DEBUGGING
 14 .debug_line   00011d45  00000000  00000000  0002b3d8  2**0
                  CONTENTS, READONLY, DEBUGGING
 15 .debug_str    0000443f  00000000  00000000  0003d11d  2**0
                  CONTENTS, READONLY, DEBUGGING
 16 .comment      00000033  00000000  00000000  0004155c  2**0
                  CONTENTS, READONLY
 17 .debug_frame  000022a8  00000000  00000000  00041590  2**2
                  CONTENTS, READONLY, DEBUGGING
 18 .stab         00000084  00000000  00000000  00043838  2**2
                  CONTENTS, READONLY, DEBUGGING
 19 .stabstr      00000117  00000000  00000000  000438bc  2**0
                  CONTENTS, READONLY, DEBUGGING
SYMBOL TABLE:
00000000 l    d  .init	00000000 .init
00000004 l    d  .vector	00000000 .vector
000001c0 l    d  .text	00000000 .text
00005fc4 l    d  .fini	00000000 .fini
20000000 l    d  .dalign	00000000 .dalign
00005fc4 l    d  .dlalign	00000000 .dlalign
20000000 l    d  .data	00000000 .data
20000100 l    d  .bss	00000000 .bss
20007800 l    d  .stack	00000000 .stack
00000000 l    d  .debug_info	00000000 .debug_info
00000000 l    d  .debug_abbrev	00000000 .debug_abbrev
00000000 l    d  .debug_loc	00000000 .debug_loc
00000000 l    d  .debug_aranges	00000000 .debug_aranges
00000000 l    d  .debug_ranges	00000000 .debug_ranges
00000000 l    d  .debug_line	00000000 .debug_line
00000000 l    d  .debug_str	00000000 .debug_str
00000000 l    d  .comment	00000000 .comment
00000000 l    d  .debug_frame	00000000 .debug_frame
00000000 l    d  .stab	00000000 .stab
00000000 l    d  .stabstr	00000000 .stabstr
00000000 l    df *ABS*	00000000 ./Startup/startup_ch32v30x_D8C.o
00000004 l       .vector	00000000 _vector_base
00000000 l    df *ABS*	00000000 app_km.c
000002c8 l     F .text	000000dc USBH_PrintFsDiag
000003a4 l     F .text	0000003c USBH_MouseBridge_ReadBits.part.0
000003e0 l     F .text	00000040 USBH_MouseBridge_ReadSignedBits.part.1
00000420 l     F .text	00000230 USBH_MouseBridge_StoreReport.constprop.14
2000016c l     O .bss	00000320 Bridge_MouseMap
20000100 l     O .bss	00000008 Bridge_MouseReport
20000108 l     O .bss	00000004 Bridge_MouseReportCount
2000010c l     O .bss	00000001 Bridge_MouseReportValid
00000000 l    df *ABS*	00000000 ch32v30x_usbfs_host.c
00002682 l     F .text	00000052 USBFSH_SaveTransDiag
000026d4 l     F .text	00000026 USBFSH_SetSelfSpeed.part.0
20000090 l     O .data	00000008 SetupClearEndpStall
20000098 l     O .data	00000008 SetupGetCfgDesc
200000a0 l     O .data	00000008 SetupGetDevDesc
200000a8 l     O .data	00000008 SetupGetStrDesc
200000b0 l     O .data	00000008 SetupSetAddr
200000b8 l     O .data	00000008 SetupSetConfig
00000000 l    df *ABS*	00000000 usb_host_hid.c
200000c0 l     O .data	00000008 SetupGetHidDes
200000c8 l     O .data	00000008 SetupSetReport
200000d0 l     O .data	00000008 SetupSetidle
00000000 l    df *ABS*	00000000 usb_host_hub.c
200000d8 l     O .data	00000008 ClearPortFeature
200000e0 l     O .data	00000008 GetHubDescr
200000e8 l     O .data	00000008 GetPortStatus
200000f0 l     O .data	00000008 SetPortFeature
00000000 l    df *ABS*	00000000 ch32v30x_it.c
00000000 l    df *ABS*	00000000 main.c
2000011c l     O .bss	00000002 alive_ms.5865
00000000 l    df *ABS*	00000000 submouse_serial.c
200013c4 l     O .bss	0000000a frame.5389
200013d0 l     O .bss	00000080 rx_buf
2000011e l     O .bss	00000002 bad_checksum_count
20000120 l     O .bss	00000008 pending_report
20000128 l     O .bss	00000001 pending_valid
20000129 l     O .bss	00000001 pos.5390
2000012a l     O .bss	00000001 rx_r
2000012b l     O .bss	00000001 rx_w
00000000 l    df *ABS*	00000000 system_ch32v30x.c
00000000 l    df *ABS*	00000000 usbd_hs_mouse.c
0000359e l     F .text	00000050 hs_endpoint_init
000035ee l     F .text	00000056 copy_ctrl_data
20001450 l     O .bss	00000040 ep0_buf
20001490 l     O .bss	00000040 ep1_buf
00005e78 l     O .text	00000022 hs_config_desc
00005e9c l     O .text	00000012 hs_device_desc
00005eb0 l     O .text	0000000e hs_manu_desc
00005ec0 l     O .text	00000034 hs_mouse_report_desc
00005ef4 l     O .text	0000001a hs_prod_desc
00005f10 l     O .text	0000000a hs_qualifier_desc
00005f1c l     O .text	0000000a hs_ser_desc
2000012c l     O .bss	00000002 ctrl_len
20000130 l     O .bss	00000004 ctrl_ptr
20000134 l     O .bss	00000001 dev_addr
20000135 l     O .bss	00000001 dev_config
20000136 l     O .bss	00000002 diag_last_index
20000138 l     O .bss	00000001 diag_last_intflag
20000139 l     O .bss	00000001 diag_last_intst
2000013a l     O .bss	00000002 diag_last_length
2000013c l     O .bss	00000001 diag_last_req
2000013d l     O .bss	00000001 diag_last_req_type
2000013e l     O .bss	00000002 diag_last_value
20000140 l     O .bss	00000004 diag_reset_count
20000144 l     O .bss	00000004 diag_set_addr_count
20000148 l     O .bss	00000004 diag_set_config_count
2000014c l     O .bss	00000004 diag_setup_count
20000150 l     O .bss	00000001 ep1_busy
20000151 l     O .bss	00000001 hid_idle
20000152 l     O .bss	00000001 hid_protocol
20000153 l     O .bss	00000001 setup_code
20000154 l     O .bss	00000002 setup_index
20000156 l     O .bss	00000002 setup_length
20000158 l     O .bss	00000001 setup_type
2000015a l     O .bss	00000002 setup_value
200000f8 l     O .data	00000004 hs_lang_desc
00000000 l    df *ABS*	00000000 ch32v30x_dbgmcu.c
00000000 l    df *ABS*	00000000 ch32v30x_gpio.c
00000000 l    df *ABS*	00000000 ch32v30x_misc.c
00000000 l    df *ABS*	00000000 ch32v30x_rcc.c
20000010 l     O .data	00000010 APBAHBPrescTable
20000084 l     O .data	00000004 ADCPrescTable
00000000 l    df *ABS*	00000000 ch32v30x_tim.c
00000000 l    df *ABS*	00000000 ch32v30x_usart.c
00000000 l    df *ABS*	00000000 debug.c
20000160 l     O .bss	00000002 p_ms
20000162 l     O .bss	00000001 p_us
20000088 l     O .data	00000004 curbrk.5377
00000000 l    df *ABS*	00000000 memchr.c
00000000 l    df *ABS*	00000000 memcpy.c
00000000 l    df *ABS*	00000000 printf.c
00000000 l    df *ABS*	00000000 puts.c
00000000 l    df *ABS*	00000000 wbuf.c
00000000 l    df *ABS*	00000000 wsetup.c
00000000 l    df *ABS*	00000000 fflush.c
00000000 l    df *ABS*	00000000 findfp.c
000048ce l     F .text	00000066 std
00000000 l    df *ABS*	00000000 fwalk.c
00000000 l    df *ABS*	00000000 makebuf.c
00000000 l    df *ABS*	00000000 nano-mallocr.c
00000000 l    df *ABS*	00000000 nano-mallocr.c
00000000 l    df *ABS*	00000000 nano-vfprintf.c
00004d60 l     F .text	00000028 __sfputc_r
00000000 l    df *ABS*	00000000 nano-vfprintf_i.c
00000000 l    df *ABS*	00000000 sbrkr.c
00000000 l    df *ABS*	00000000 stdio.c
00000000 l    df *ABS*	00000000 writer.c
00000000 l    df *ABS*	00000000 closer.c
00000000 l    df *ABS*	00000000 fstatr.c
00000000 l    df *ABS*	00000000 isattyr.c
00000000 l    df *ABS*	00000000 lseekr.c
00000000 l    df *ABS*	00000000 mlock.c
00000000 l    df *ABS*	00000000 readr.c
00000000 l    df *ABS*	00000000 close.c
00000000 l    df *ABS*	00000000 fstat.c
00000000 l    df *ABS*	00000000 isatty.c
00000000 l    df *ABS*	00000000 lseek.c
00000000 l    df *ABS*	00000000 read.c
00000000 l    df *ABS*	00000000 impure.c
20000020 l     O .data	00000060 impure_data
00000000 l    df *ABS*	00000000 reent.c
00003bbc  w      .text	00000000 EXTI2_IRQHandler
00003bbc  w      .text	00000000 TIM8_TRG_COM_IRQHandler
00003bbc  w      .text	00000000 TIM8_CC_IRQHandler
0000557c g     F .text	00000030 _isatty_r
000044a0 g     F .text	000000d4 _puts_r
000055ac g     F .text	00000034 _lseek_r
00003bbc  w      .text	00000000 UART8_IRQHandler
00003722 g     F .text	000000a6 USBHSD_Mouse_SendReport
00004460 g     F .text	00000040 printf
20000880 g       .data	00000000 __global_pointer$
000001c8 g     F .text	00000028 .hidden __riscv_save_8
00003bbc  w      .text	00000000 TIM1_CC_IRQHandler
000054ae g     F .text	00000030 __sseek
00004984 g     F .text	0000006c __sinit
00004580 g     F .text	000000bc __swbuf_r
00002f56 g     F .text	00000010 HardFault_Handler
0000493e g     F .text	00000046 __sfmoreglue
000055e2 g     F .text	00000002 __malloc_unlock
00002d08 g     F .text	00000026 USBFSH_ClearEndpStall
00001a14 g     F .text	00000038 HUB_CheckPortSpeed
00000214 g     F .text	0000000c .hidden __riscv_restore_3
00003bbc  w      .text	00000000 TIM6_IRQHandler
00003bbc  w      .text	00000000 SysTick_Handler
00003d16 g     F .text	0000005c NVIC_Init
00002d76 g     F .text	00000040 USBFSH_SendEndpData
00003bbc  w      .text	00000000 PVD_IRQHandler
00002ca8 g     F .text	0000003a USBFSH_SetUsbAddress
00003bbc  w      .text	00000000 SDIO_IRQHandler
00003bbc  w      .text	00000000 TIM9_BRK_IRQHandler
00000200 g     F .text	00000020 .hidden __riscv_restore_10
00003bbc  w      .text	00000000 DMA2_Channel8_IRQHandler
00002f54 g     F .text	00000002 NMI_Handler
00003f90 g     F .text	00000024 RCC_USBHSPHYPLLALIVEcmd
0000329c g     F .text	00000118 SubMouseSerial_Task
00003bbc  w      .text	00000000 CAN2_RX1_IRQHandler
00003bbc  w      .text	00000000 EXTI3_IRQHandler
000001c8 g     F .text	00000028 .hidden __riscv_save_11
00003c4c g     F .text	0000000a DBGMCU_GetCHIPID
000026fa g     F .text	0000003a USBFS_RCC_Init
00003818 g     F .text	000003a4 USBHS_IRQHandler
000041f2 g     F .text	0000000a USART_GetFlagStatus
00003bbc  w      .text	00000000 DMA2_Channel9_IRQHandler
0000554a g     F .text	00000032 _fstat_r
00000650 g     F .text	00000030 USBH_MouseBridge_ReadReport
00002bda g     F .text	00000070 USBFSH_GetConfigDescr
00003bbc  w      .text	00000000 TIM10_CC_IRQHandler
20001344 g     O .bss	00000040 USBFS_RX_Buf
200014d0 g     O .bss	00000004 errno
20000100 g       .bss	00000000 _sbss
00000800 g       *ABS*	00000000 __stack_size
00000680 g     F .text	0000009c USBH_MouseBridge_IsConfigured
000042ce g     F .text	00000060 USART_Printf_Init
200008a0 g     O .bss	00000a64 HostCtl
00000946 g     F .text	00000042 USBH_AnalyseType
000008fc g     F .text	00000024 USBH_SetUsbAddress
00002ce2 g     F .text	00000026 USBFSH_SetUsbConfig
00003bbc  w      .text	00000000 USBFS_IRQHandler
00000214 g     F .text	0000000c .hidden __riscv_restore_2
00003fb4 g     F .text	00000016 RCC_USBCLK48MConfig
000043ae g     F .text	000000b2 memcpy
00004934 g     F .text	0000000a _cleanup_r
00002db6 g     F .text	0000003c HID_GetHidDesr
0000320a g     F .text	0000003c SubMouseSerial_SendAlive
00003bbc  w      .text	00000000 EXTI0_IRQHandler
00003bbc  w      .text	00000000 I2C2_EV_IRQHandler
00003bbc  w      .text	00000000 TIM10_TRG_COM_IRQHandler
000040b8 g     F .text	00000018 TIM_Cmd
00002df2 g     F .text	00000038 HID_SetReport
00004574 g     F .text	0000000c puts
000008c4 g     F .text	0000001a USBH_EnableRootHubPort
20000080 g     O .data	00000004 SystemCoreClock
000041ea g     F .text	00000008 USART_ReceiveData
00005628 g     F .text	00000010 _fstat
00000004 g       .init	00000000 _einit
20000112 g     O .bss	00000001 USBFSH_LastMisSt
00003f5c g     F .text	0000001a RCC_USBHSPLLCLKConfig
000040fa g     F .text	0000000c TIM_ClearITPendingBit
00003f06 g     F .text	0000001e RCC_APB2PeriphClockCmd
000001c0 g     F .text	00000030 .hidden __riscv_save_12
00003bbc  w      .text	00000000 CAN2_SCE_IRQHandler
00003bbc  w      .text	00000000 ADC1_2_IRQHandler
00003c56 g     F .text	000000c0 GPIO_Init
00003bbc  w      .text	00000000 Break_Point_Handler
00000200 g     F .text	00000020 .hidden __riscv_restore_11
2000015c g     O .bss	00000004 NVIC_Priority_Group
00003bbc  w      .text	00000000 SPI1_IRQHandler
000009c2 g     F .text	00000046 USBH_GetHidData
00004196 g     F .text	00000016 USART_Cmd
00005408 g     F .text	00000032 _sbrk_r
000037c8 g     F .text	00000050 USBHSD_Mouse_GetDiag
00003bbc  w      .text	00000000 TAMPER_IRQHandler
000001f0 g     F .text	0000000c .hidden __riscv_save_1
00001a4c g     F .text	000001ce USBH_EnumHubPortDevice
00000214 g     F .text	0000000c .hidden __riscv_restore_0
000055e4 g     F .text	00000034 _read_r
000001d6 g     F .text	0000001a .hidden __riscv_save_7
00003bbc  w      .text	00000000 CAN2_RX0_IRQHandler
0000089a g     F .text	0000001a USBH_CheckRootHubPortStatus
00003bbc  w      .text	00000000 TIM8_UP_IRQHandler
00003f24 g     F .text	0000001e RCC_APB1PeriphClockCmd
00003bbc  w      .text	00000000 Ecall_M_Mode_Handler
20007800 g       .stack	00000000 _heap_end
2000088c g     O .bss	00000012 DevDesc_Buf
00005638 g     F .text	00000010 _isatty
00004262 g     F .text	00000036 Delay_Us
200000fc g     O .data	00000004 _global_impure_ptr
0000020a g     F .text	00000016 .hidden __riscv_restore_5
00003bbc  w      .text	00000000 DMA2_Channel2_IRQHandler
00003ee8 g     F .text	0000001e RCC_AHBPeriphClockCmd
00003bbc  w      .text	00000000 DMA1_Channel4_IRQHandler
0000436c g     F .text	0000002a _sbrk
00003bbc  w      .text	00000000 TIM9_UP_IRQHandler
0000020a g     F .text	00000016 .hidden __riscv_restore_6
00003bbc  w      .text	00000000 USART3_IRQHandler
00003bbc  w      .text	00000000 RTC_IRQHandler
0000071c g     F .text	00000006 USBH_MouseBridge_ReportCount
200014d4 g       .bss	00000000 _ebss
000041fc g     F .text	0000003c USART_GetITStatus
00002e66 g     F .text	0000003a HUB_GetPortStatus
00003bbc  w      .text	00000000 DMA1_Channel7_IRQHandler
00003f76 g     F .text	0000001a RCC_USBHSPLLCKREFCLKConfig
0000102e g     F .text	0000049c KM_DealHidReportDesc
00003bbc  w      .text	00000000 CAN1_RX1_IRQHandler
00004238 g     F .text	0000002a Delay_Init
00002ed4 g     F .text	00000034 HUB_SetPortFeature
00003bbc  w      .text	00000000 DVP_IRQHandler
00003bbc  w      .text	00000000 UART5_IRQHandler
20000113 g     O .bss	00000001 USBFSH_LastPid
00003bbc  w      .text	00000000 TIM4_IRQHandler
000001c8 g     F .text	00000028 .hidden __riscv_save_9
00003bbc  w      .text	00000000 DMA2_Channel1_IRQHandler
00005f28 g     O .text	00000020 __sf_fake_stderr
000001d6 g     F .text	0000001a .hidden __riscv_save_4
20000116 g     O .bss	00000002 USBFSH_LastRxLen
000008de g     F .text	0000001e USBH_GetDeviceDescr
00003bbc  w      .text	00000000 I2C1_EV_IRQHandler
000040e2 g     F .text	00000018 TIM_GetITStatus
20001304 g     O .bss	0000003e RootHubDev
00000a6c g     F .text	0000020a USBH_EnumRootDevice
00003d72 g     F .text	00000176 RCC_GetClocksFreq
00003644 g     F .text	000000d0 USBHSD_Mouse_Init
00003bbc  w      .text	00000000 DMA1_Channel6_IRQHandler
00004d88 g     F .text	00000042 __sfputs_r
00003bbc  w      .text	00000000 UART4_IRQHandler
00003bbc  w      .text	00000000 DMA2_Channel4_IRQHandler
00004396 g     F .text	00000018 memchr
00004106 g     F .text	00000090 USART_Init
20000118 g     O .bss	00000001 USBFSH_LastTog
00004be4 g     F .text	000000a8 _free_r
00000792 g     F .text	00000108 TIM3_IRQHandler
00003bbc  w      .text	00000000 RCC_IRQHandler
000001f0 g     F .text	0000000c .hidden __riscv_save_3
00003bbc  w      .text	00000000 TIM1_TRG_COM_IRQHandler
00000e98 g     F .text	00000196 KM_AnalyzeHidReportDesc
00003bbc  w      .text	00000000 DMA1_Channel1_IRQHandler
00000000 g       .init	00000000 _start
00003bbc  w      .text	00000000 DMA2_Channel7_IRQHandler
20000000 g     O .data	00000010 AHBPrescTable
00000988 g     F .text	0000001c USBH_SetUsbConfig
00005648 g     F .text	00000010 _lseek
2000048c g     O .bss	00000400 Com_Buf
00001c1a g     F .text	000000a2 KB_AnalyzeKeyValue
00003bbc  w      .text	00000000 EXTI15_10_IRQHandler
000040d0 g     F .text	00000012 TIM_ITConfig
000041ac g     F .text	00000036 USART_ITConfig
0000184c g     F .text	000000c4 HUB_Port_PreEnum1
00003f42 g     F .text	0000001a RCC_USBHSConfig
00001d4e g     F .text	00000222 USBH_EnumHidDevice
00003bbc  w      .text	00000000 TIM7_IRQHandler
0000551a g     F .text	00000030 _close_r
00003bbc  w      .text	00000000 CAN2_TX_IRQHandler
20000000 g       .dalign	00000000 _data_vma
00003bbc  w      .text	00000000 TIM5_IRQHandler
000027e4 g     F .text	00000036 USBFSH_SetSelfSpeed
20000110 g     O .bss	00000001 USBFSH_LastIntFg
0000463c g     F .text	000000fc __swsetup_r
00001f70 g     F .text	00000712 USBH_MainDeal
00003bbc  w      .text	00000000 EXTI9_5_IRQHandler
000049f0 g     F .text	000000a0 __sfp
00000920 g     F .text	00000026 USBH_GetConfigDescr
000001c8 g     F .text	00000028 .hidden __riscv_save_10
0000543a g     F .text	0000002c __sread
000033b4 g     F .text	00000032 SubMouseSerial_ReadReport
00003bbc  w      .text	00000000 ETH_WKUP_IRQHandler
000055e0 g     F .text	00000002 __malloc_lock
0000020a g     F .text	00000016 .hidden __riscv_restore_4
00000200 g     F .text	00000020 .hidden __riscv_restore_8
00004868 g     F .text	00000066 _fflush_r
000001d6 g     F .text	0000001a .hidden __riscv_save_6
00003bbc  w      .text	00000000 SPI2_IRQHandler
00005f48 g     O .text	00000020 __sf_fake_stdin
00000220 g     F .text	000000a8 memset
00000200 g     F .text	00000020 .hidden __riscv_restore_9
0000020a g     F .text	00000016 .hidden __riscv_restore_7
00002f66 g     F .text	000001f4 main
00000722 g     F .text	00000070 TIM3_Init
00003bbc  w      .text	00000000 TIM10_BRK_IRQHandler
00003714 g     F .text	0000000e USBHSD_Mouse_IsConfigured
00003bbc  w      .text	00000000 TIM9_CC_IRQHandler
000054de g     F .text	00000006 __sclose
00003bbc  w      .text	00000000 DMA2_Channel5_IRQHandler
0000286a g     F .text	0000003c USBFSH_EnableRootHubPort
00004c8c g     F .text	000000d4 _malloc_r
00003bbc  w      .text	00000000 DMA1_Channel5_IRQHandler
00003bbc  w      .text	00000000 EXTI4_IRQHandler
00004298 g     F .text	00000036 Delay_Ms
00003bbc  w      .text	00000000 USB_LP_CAN1_RX0_IRQHandler
00002c4a g     F .text	0000005e USBFSH_GetStrDescr
000033e6 g     F .text	000000fa SystemInit
00003bbc  w      .text	00000000 RNG_IRQHandler
00004460 g     F .text	00000040 iprintf
00003bbc  w      .text	00000000 USB_HP_CAN1_TX_IRQHandler
00000000 g       .init	00000000 _sinit
20001384 g     O .bss	00000040 USBFS_TX_Buf
00000c76 g     F .text	00000222 KM_AnalyzeConfigDesc
000054e4 g     F .text	00000036 _write_r
00003bbc  w      .text	00000000 DMA1_Channel3_IRQHandler
00003bbc  w      .text	00000000 ETH_IRQHandler
00005058 g     F .text	0000010c _printf_common
2000010e g     O .bss	00000002 USBFSH_LastHostSetup
2000008c g     O .data	00000004 _impure_ptr
00003bbc  w      .text	00000000 TIM1_UP_IRQHandler
00004738 g     F .text	00000130 __sflush_r
00002b98 g     F .text	00000042 USBFSH_GetDeviceDescr
00000a50 g     F .text	0000001c USBH_ClearEndpStall
00002d2e g     F .text	00000048 USBFSH_GetEndpData
00003bbc  w      .text	00000000 WWDG_IRQHandler
00003bbc  w      .text	00000000 USBHSWakeup_IRQHandler
00003bbc  w      .text	00000000 DMA2_Channel11_IRQHandler
00002ea0 g     F .text	00000034 HUB_ClearPortFeature
00003bbc  w      .text	00000000 Ecall_U_Mode_Handler
00003bbc  w      .text	00000000 DMA2_Channel6_IRQHandler
00003bbc  w      .text	00000000 TIM2_IRQHandler
20008000 g       .stack	00000000 _eusrstack
000001f0 g     F .text	0000000c .hidden __riscv_save_2
000027c0 g     F .text	00000010 USBFSH_CheckRootHubPortSpeed
00003bbc  w      .text	00000000 SW_Handler
00002f08 g     F .text	0000004c HUB_GetClassDevDescr
000014ca g     F .text	000000ae HUB_AnalyzeConfigDesc
00003bbc  w      .text	00000000 TIM1_BRK_IRQHandler
00004afa g     F .text	00000058 __swhatbuf_r
000041e2 g     F .text	00000008 USART_SendData
00002792 g     F .text	0000002e USBFSH_CheckRootHubPortStatus
00003bbc  w      .text	00000000 DMA2_Channel10_IRQHandler
00003bbc  w      .text	00000000 EXTI1_IRQHandler
20000114 g     O .bss	00000001 USBFSH_LastRet
000001d6 g     F .text	0000001a .hidden __riscv_save_5
0000432e g     F .text	0000003e _write
20000100 g       .data	00000000 _edata
000008b4 g     F .text	00000010 USBH_ResetRootHubPort
200014d4 g       .bss	00000000 _end
00003fca g     F .text	000000ee TIM_TimeBaseInit
00003bbc  w      .text	00000000 RTCAlarm_IRQHandler
00001910 g     F .text	00000104 HUB_Port_PreEnum2
00005fc4 g       .dlalign	00000000 _data_lma
00003bbc  w      .text	00000000 TIM10_UP_IRQHandler
00002734 g     F .text	0000005e USBFS_Host_Init
00003bbc  w      .text	00000000 TIM9_TRG_COM_IRQHandler
00003bbc  w      .text	00000000 UART7_IRQHandler
00002e2a g     F .text	0000003c HID_SetIdle
00003bbc  w      .text	00000000 USART2_IRQHandler
00003bbc  w      .text	00000000 UART6_IRQHandler
00005466 g     F .text	00000048 __swrite
000009a4 g     F .text	0000001e USBH_GetStrDescr
0000281a g     F .text	00000050 USBFSH_ResetRootHubPort
20000111 g     O .bss	00000001 USBFSH_LastIntSt
00004dca g     F .text	0000028e _vfiprintf_r
00004a90 g     F .text	0000006a _fwalk_reent
000034e0 g     F .text	000000be SystemCoreClockUpdate
00003bbc  w      .text	00000000 I2C2_ER_IRQHandler
00001cbc g     F .text	00000092 KB_SetReport
00003bbc  w      .text	00000000 DMA1_Channel2_IRQHandler
00005f68 g     O .text	00000020 __sf_fake_stdout
000001fc g     F .text	00000024 .hidden __riscv_restore_12
00003bbc  w      .text	00000000 TIM8_BRK_IRQHandler
00005658 g     F .text	00000010 _read
00003bbe  w      .text	00000000 handle_reset
00003bbc  w      .text	00000000 CAN1_SCE_IRQHandler
00003bbc  w      .text	00000000 FLASH_IRQHandler
000001f0 g     F .text	0000000c .hidden __riscv_save_0
2000010d g     O .bss	00000001 USBFSH_LastHostCtrl
00001578 g     F .text	000002d4 USBH_EnumHubDevice
00003246 g     F .text	00000056 USART1_IRQHandler
00004b52 g     F .text	00000092 __smakebuf_r
00000a08 g     F .text	00000048 USBH_SendHidData
00005164 g     F .text	000002a4 _printf_i
00003bbc  w      .text	00000000 SPI3_IRQHandler
20000168 g     O .bss	00000004 __malloc_sbrk_start
000027d0 g     F .text	00000014 USBFSH_SetSelfAddr
00003bbc  w      .text	00000000 I2C1_ER_IRQHandler
000028a6 g     F .text	00000150 USBFSH_Transact
20000164 g     O .bss	00000004 __malloc_free_list
00000214 g     F .text	0000000c .hidden __riscv_restore_1
2000011a g     O .bss	00000002 USBFSH_LastWaitLeft
00004dca g     F .text	0000028e _vfprintf_r
0000315a g     F .text	000000b0 SubMouseSerial_Init
00003bbc  w      .text	00000000 USBWakeUp_IRQHandler
00005618 g     F .text	00000010 _close
00003bbc  w      .text	00000000 DMA2_Channel3_IRQHandler
000029f6 g     F .text	000001a2 USBFSH_CtrlTransfer



Disassembly of section .init:

00000000 <_sinit>:
   0:	3bf0306f          	j	3bbe <handle_reset>

Disassembly of section .vector:

00000004 <_vector_base>:
	...
   c:	2f54                	lbu	a3,28(a4)
   e:	0000                	unimp
  10:	2f56                	lhu	a3,28(a4)
  12:	0000                	unimp
  14:	0000                	unimp
  16:	0000                	unimp
  18:	3bbc                	lbu	a5,19(a5)
	...
  22:	0000                	unimp
  24:	3bbc                	lbu	a5,19(a5)
  26:	0000                	unimp
  28:	3bbc                	lbu	a5,19(a5)
	...
  32:	0000                	unimp
  34:	3bbc                	lbu	a5,19(a5)
  36:	0000                	unimp
  38:	0000                	unimp
  3a:	0000                	unimp
  3c:	3bbc                	lbu	a5,19(a5)
  3e:	0000                	unimp
  40:	0000                	unimp
  42:	0000                	unimp
  44:	3bbc                	lbu	a5,19(a5)
  46:	0000                	unimp
  48:	3bbc                	lbu	a5,19(a5)
  4a:	0000                	unimp
  4c:	3bbc                	lbu	a5,19(a5)
  4e:	0000                	unimp
  50:	3bbc                	lbu	a5,19(a5)
  52:	0000                	unimp
  54:	3bbc                	lbu	a5,19(a5)
  56:	0000                	unimp
  58:	3bbc                	lbu	a5,19(a5)
  5a:	0000                	unimp
  5c:	3bbc                	lbu	a5,19(a5)
  5e:	0000                	unimp
  60:	3bbc                	lbu	a5,19(a5)
  62:	0000                	unimp
  64:	3bbc                	lbu	a5,19(a5)
  66:	0000                	unimp
  68:	3bbc                	lbu	a5,19(a5)
  6a:	0000                	unimp
  6c:	3bbc                	lbu	a5,19(a5)
  6e:	0000                	unimp
  70:	3bbc                	lbu	a5,19(a5)
  72:	0000                	unimp
  74:	3bbc                	lbu	a5,19(a5)
  76:	0000                	unimp
  78:	3bbc                	lbu	a5,19(a5)
  7a:	0000                	unimp
  7c:	3bbc                	lbu	a5,19(a5)
  7e:	0000                	unimp
  80:	3bbc                	lbu	a5,19(a5)
  82:	0000                	unimp
  84:	3bbc                	lbu	a5,19(a5)
  86:	0000                	unimp
  88:	3bbc                	lbu	a5,19(a5)
  8a:	0000                	unimp
  8c:	3bbc                	lbu	a5,19(a5)
  8e:	0000                	unimp
  90:	3bbc                	lbu	a5,19(a5)
  92:	0000                	unimp
  94:	3bbc                	lbu	a5,19(a5)
  96:	0000                	unimp
  98:	3bbc                	lbu	a5,19(a5)
  9a:	0000                	unimp
  9c:	3bbc                	lbu	a5,19(a5)
  9e:	0000                	unimp
  a0:	3bbc                	lbu	a5,19(a5)
  a2:	0000                	unimp
  a4:	3bbc                	lbu	a5,19(a5)
  a6:	0000                	unimp
  a8:	3bbc                	lbu	a5,19(a5)
  aa:	0000                	unimp
  ac:	3bbc                	lbu	a5,19(a5)
  ae:	0000                	unimp
  b0:	3bbc                	lbu	a5,19(a5)
  b2:	0000                	unimp
  b4:	3bbc                	lbu	a5,19(a5)
  b6:	0000                	unimp
  b8:	0792                	slli	a5,a5,0x4
  ba:	0000                	unimp
  bc:	3bbc                	lbu	a5,19(a5)
  be:	0000                	unimp
  c0:	3bbc                	lbu	a5,19(a5)
  c2:	0000                	unimp
  c4:	3bbc                	lbu	a5,19(a5)
  c6:	0000                	unimp
  c8:	3bbc                	lbu	a5,19(a5)
  ca:	0000                	unimp
  cc:	3bbc                	lbu	a5,19(a5)
  ce:	0000                	unimp
  d0:	3bbc                	lbu	a5,19(a5)
  d2:	0000                	unimp
  d4:	3bbc                	lbu	a5,19(a5)
  d6:	0000                	unimp
  d8:	3246                	lhu	s1,36(a2)
  da:	0000                	unimp
  dc:	3bbc                	lbu	a5,19(a5)
  de:	0000                	unimp
  e0:	3bbc                	lbu	a5,19(a5)
  e2:	0000                	unimp
  e4:	3bbc                	lbu	a5,19(a5)
  e6:	0000                	unimp
  e8:	3bbc                	lbu	a5,19(a5)
  ea:	0000                	unimp
  ec:	3bbc                	lbu	a5,19(a5)
  ee:	0000                	unimp
  f0:	3bbc                	lbu	a5,19(a5)
  f2:	0000                	unimp
  f4:	3bbc                	lbu	a5,19(a5)
  f6:	0000                	unimp
  f8:	3bbc                	lbu	a5,19(a5)
  fa:	0000                	unimp
  fc:	3bbc                	lbu	a5,19(a5)
  fe:	0000                	unimp
 100:	3bbc                	lbu	a5,19(a5)
 102:	0000                	unimp
 104:	0000                	unimp
 106:	0000                	unimp
 108:	3bbc                	lbu	a5,19(a5)
 10a:	0000                	unimp
 10c:	3bbc                	lbu	a5,19(a5)
 10e:	0000                	unimp
 110:	3bbc                	lbu	a5,19(a5)
 112:	0000                	unimp
 114:	3bbc                	lbu	a5,19(a5)
 116:	0000                	unimp
 118:	3bbc                	lbu	a5,19(a5)
 11a:	0000                	unimp
 11c:	3bbc                	lbu	a5,19(a5)
 11e:	0000                	unimp
 120:	3bbc                	lbu	a5,19(a5)
 122:	0000                	unimp
 124:	3bbc                	lbu	a5,19(a5)
 126:	0000                	unimp
 128:	3bbc                	lbu	a5,19(a5)
 12a:	0000                	unimp
 12c:	3bbc                	lbu	a5,19(a5)
 12e:	0000                	unimp
 130:	3bbc                	lbu	a5,19(a5)
 132:	0000                	unimp
 134:	3bbc                	lbu	a5,19(a5)
 136:	0000                	unimp
 138:	3bbc                	lbu	a5,19(a5)
 13a:	0000                	unimp
 13c:	3bbc                	lbu	a5,19(a5)
 13e:	0000                	unimp
 140:	3bbc                	lbu	a5,19(a5)
 142:	0000                	unimp
 144:	3bbc                	lbu	a5,19(a5)
 146:	0000                	unimp
 148:	3bbc                	lbu	a5,19(a5)
 14a:	0000                	unimp
 14c:	3bbc                	lbu	a5,19(a5)
 14e:	0000                	unimp
 150:	3bbc                	lbu	a5,19(a5)
 152:	0000                	unimp
 154:	3bbc                	lbu	a5,19(a5)
 156:	0000                	unimp
 158:	3818                	lbu	a4,17(s0)
 15a:	0000                	unimp
 15c:	3bbc                	lbu	a5,19(a5)
 15e:	0000                	unimp
 160:	3bbc                	lbu	a5,19(a5)
 162:	0000                	unimp
 164:	3bbc                	lbu	a5,19(a5)
 166:	0000                	unimp
 168:	3bbc                	lbu	a5,19(a5)
 16a:	0000                	unimp
 16c:	3bbc                	lbu	a5,19(a5)
 16e:	0000                	unimp
 170:	3bbc                	lbu	a5,19(a5)
 172:	0000                	unimp
 174:	3bbc                	lbu	a5,19(a5)
 176:	0000                	unimp
 178:	3bbc                	lbu	a5,19(a5)
 17a:	0000                	unimp
 17c:	3bbc                	lbu	a5,19(a5)
 17e:	0000                	unimp
 180:	3bbc                	lbu	a5,19(a5)
 182:	0000                	unimp
 184:	3bbc                	lbu	a5,19(a5)
 186:	0000                	unimp
 188:	3bbc                	lbu	a5,19(a5)
 18a:	0000                	unimp
 18c:	3bbc                	lbu	a5,19(a5)
 18e:	0000                	unimp
 190:	3bbc                	lbu	a5,19(a5)
 192:	0000                	unimp
 194:	3bbc                	lbu	a5,19(a5)
 196:	0000                	unimp
 198:	3bbc                	lbu	a5,19(a5)
 19a:	0000                	unimp
 19c:	3bbc                	lbu	a5,19(a5)
 19e:	0000                	unimp
 1a0:	3bbc                	lbu	a5,19(a5)
	...

Disassembly of section .text:

000001c0 <__riscv_save_12>:
     1c0:	7139                	addi	sp,sp,-64
     1c2:	4301                	li	t1,0
     1c4:	c66e                	sw	s11,12(sp)
     1c6:	a019                	j	1cc <__riscv_save_10+0x4>

000001c8 <__riscv_save_10>:
     1c8:	7139                	addi	sp,sp,-64
     1ca:	5341                	li	t1,-16
     1cc:	c86a                	sw	s10,16(sp)
     1ce:	ca66                	sw	s9,20(sp)
     1d0:	cc62                	sw	s8,24(sp)
     1d2:	ce5e                	sw	s7,28(sp)
     1d4:	a019                	j	1da <__riscv_save_4+0x4>

000001d6 <__riscv_save_4>:
     1d6:	7139                	addi	sp,sp,-64
     1d8:	5301                	li	t1,-32
     1da:	d05a                	sw	s6,32(sp)
     1dc:	d256                	sw	s5,36(sp)
     1de:	d452                	sw	s4,40(sp)
     1e0:	d64e                	sw	s3,44(sp)
     1e2:	d84a                	sw	s2,48(sp)
     1e4:	da26                	sw	s1,52(sp)
     1e6:	dc22                	sw	s0,56(sp)
     1e8:	de06                	sw	ra,60(sp)
     1ea:	40610133          	sub	sp,sp,t1
     1ee:	8282                	jr	t0

000001f0 <__riscv_save_0>:
     1f0:	1141                	addi	sp,sp,-16
     1f2:	c04a                	sw	s2,0(sp)
     1f4:	c226                	sw	s1,4(sp)
     1f6:	c422                	sw	s0,8(sp)
     1f8:	c606                	sw	ra,12(sp)
     1fa:	8282                	jr	t0

000001fc <__riscv_restore_12>:
     1fc:	4db2                	lw	s11,12(sp)
     1fe:	0141                	addi	sp,sp,16

00000200 <__riscv_restore_10>:
     200:	4d02                	lw	s10,0(sp)
     202:	4c92                	lw	s9,4(sp)
     204:	4c22                	lw	s8,8(sp)
     206:	4bb2                	lw	s7,12(sp)
     208:	0141                	addi	sp,sp,16

0000020a <__riscv_restore_4>:
     20a:	4b02                	lw	s6,0(sp)
     20c:	4a92                	lw	s5,4(sp)
     20e:	4a22                	lw	s4,8(sp)
     210:	49b2                	lw	s3,12(sp)
     212:	0141                	addi	sp,sp,16

00000214 <__riscv_restore_0>:
     214:	4902                	lw	s2,0(sp)
     216:	4492                	lw	s1,4(sp)
     218:	4422                	lw	s0,8(sp)
     21a:	40b2                	lw	ra,12(sp)
     21c:	0141                	addi	sp,sp,16
     21e:	8082                	ret

00000220 <memset>:
     220:	433d                	li	t1,15
     222:	872a                	mv	a4,a0
     224:	02c37363          	bgeu	t1,a2,24a <memset+0x2a>
     228:	00f77793          	andi	a5,a4,15
     22c:	efbd                	bnez	a5,2aa <memset+0x8a>
     22e:	e5ad                	bnez	a1,298 <memset+0x78>
     230:	ff067693          	andi	a3,a2,-16
     234:	8a3d                	andi	a2,a2,15
     236:	96ba                	add	a3,a3,a4
     238:	c30c                	sw	a1,0(a4)
     23a:	c34c                	sw	a1,4(a4)
     23c:	c70c                	sw	a1,8(a4)
     23e:	c74c                	sw	a1,12(a4)
     240:	0741                	addi	a4,a4,16
     242:	fed76be3          	bltu	a4,a3,238 <memset+0x18>
     246:	e211                	bnez	a2,24a <memset+0x2a>
     248:	8082                	ret
     24a:	40c306b3          	sub	a3,t1,a2
     24e:	068a                	slli	a3,a3,0x2
     250:	00000297          	auipc	t0,0x0
     254:	9696                	add	a3,a3,t0
     256:	00a68067          	jr	10(a3)
     25a:	00b70723          	sb	a1,14(a4)
     25e:	00b706a3          	sb	a1,13(a4)
     262:	00b70623          	sb	a1,12(a4)
     266:	00b705a3          	sb	a1,11(a4)
     26a:	00b70523          	sb	a1,10(a4)
     26e:	00b704a3          	sb	a1,9(a4)
     272:	00b70423          	sb	a1,8(a4)
     276:	00b703a3          	sb	a1,7(a4)
     27a:	00b70323          	sb	a1,6(a4)
     27e:	00b702a3          	sb	a1,5(a4)
     282:	00b70223          	sb	a1,4(a4)
     286:	00b701a3          	sb	a1,3(a4)
     28a:	00b70123          	sb	a1,2(a4)
     28e:	00b700a3          	sb	a1,1(a4)
     292:	00b70023          	sb	a1,0(a4)
     296:	8082                	ret
     298:	0ff5f593          	andi	a1,a1,255
     29c:	00859693          	slli	a3,a1,0x8
     2a0:	8dd5                	or	a1,a1,a3
     2a2:	01059693          	slli	a3,a1,0x10
     2a6:	8dd5                	or	a1,a1,a3
     2a8:	b761                	j	230 <memset+0x10>
     2aa:	00279693          	slli	a3,a5,0x2
     2ae:	00000297          	auipc	t0,0x0
     2b2:	9696                	add	a3,a3,t0
     2b4:	8286                	mv	t0,ra
     2b6:	fa8680e7          	jalr	-88(a3)
     2ba:	8096                	mv	ra,t0
     2bc:	17c1                	addi	a5,a5,-16
     2be:	8f1d                	sub	a4,a4,a5
     2c0:	963e                	add	a2,a2,a5
     2c2:	f8c374e3          	bgeu	t1,a2,24a <memset+0x2a>
     2c6:	b7a5                	j	22e <memset+0xe>

000002c8 <USBH_PrintFsDiag>:
     2c8:	f29ff2ef          	jal	t0,1f0 <__riscv_save_0>
     2cc:	500007b7          	lui	a5,0x50000
     2d0:	8911c903          	lbu	s2,-1903(gp) # 20000111 <USBFSH_LastIntSt>
     2d4:	200016b7          	lui	a3,0x20001
     2d8:	3398                	lbu	a4,1(a5)
     2da:	339c                	lbu	a5,1(a5)
     2dc:	3076c683          	lbu	a3,775(a3) # 20001307 <RootHubDev+0x3>
     2e0:	8315                	srli	a4,a4,0x5
     2e2:	8391                	srli	a5,a5,0x4
     2e4:	4605                	li	a2,1
     2e6:	1141                	addi	sp,sp,-16
     2e8:	85aa                	mv	a1,a0
     2ea:	00f97913          	andi	s2,s2,15
     2ee:	8b05                	andi	a4,a4,1
     2f0:	8b85                	andi	a5,a5,1
     2f2:	08c68f63          	beq	a3,a2,390 <USBH_PrintFsDiag+0xc8>
     2f6:	c2d5                	beqz	a3,39a <USBH_PrintFsDiag+0xd2>
     2f8:	00006637          	lui	a2,0x6
     2fc:	b0460613          	addi	a2,a2,-1276 # 5b04 <_read+0x4ac>
     300:	50000437          	lui	s0,0x50000
     304:	00544803          	lbu	a6,5(s0) # 50000005 <_eusrstack+0x2fff8005>
     308:	00144883          	lbu	a7,1(s0)
     30c:	03645303          	lhu	t1,54(s0)
     310:	00006537          	lui	a0,0x6
     314:	0028d893          	srli	a7,a7,0x2
     318:	00a35313          	srli	t1,t1,0xa
     31c:	00137313          	andi	t1,t1,1
     320:	c01a                	sw	t1,0(sp)
     322:	0018f893          	andi	a7,a7,1
     326:	00187813          	andi	a6,a6,1
     32a:	b0850513          	addi	a0,a0,-1272 # 5b08 <_read+0x4b0>
     32e:	132040ef          	jal	ra,4460 <iprintf>
     332:	304c                	lbu	a1,5(s0)
     334:	3010                	lbu	a2,1(s0)
     336:	3876                	lhu	a3,54(s0)
     338:	2078                	lbu	a4,6(s0)
     33a:	307c                	lbu	a5,7(s0)
     33c:	00845803          	lhu	a6,8(s0)
     340:	00006537          	lui	a0,0x6
     344:	b4050513          	addi	a0,a0,-1216 # 5b40 <_read+0x4e8>
     348:	118040ef          	jal	ra,4460 <iprintf>
     34c:	8931c583          	lbu	a1,-1901(gp) # 20000113 <USBFSH_LastPid>
     350:	8981c603          	lbu	a2,-1896(gp) # 20000118 <USBFSH_LastTog>
     354:	8941c683          	lbu	a3,-1900(gp) # 20000114 <USBFSH_LastRet>
     358:	8901c703          	lbu	a4,-1904(gp) # 20000110 <USBFSH_LastIntFg>
     35c:	8911c783          	lbu	a5,-1903(gp) # 20000111 <USBFSH_LastIntSt>
     360:	8911c883          	lbu	a7,-1903(gp) # 20000111 <USBFSH_LastIntSt>
     364:	8911c503          	lbu	a0,-1903(gp) # 20000111 <USBFSH_LastIntSt>
     368:	8961d803          	lhu	a6,-1898(gp) # 20000116 <USBFSH_LastRxLen>
     36c:	8119                	srli	a0,a0,0x6
     36e:	89a1d303          	lhu	t1,-1894(gp) # 2000011a <USBFSH_LastWaitLeft>
     372:	8905                	andi	a0,a0,1
     374:	c02a                	sw	a0,0(sp)
     376:	00006537          	lui	a0,0x6
     37a:	c41a                	sw	t1,8(sp)
     37c:	c242                	sw	a6,4(sp)
     37e:	0078d893          	srli	a7,a7,0x7
     382:	884a                	mv	a6,s2
     384:	b7c50513          	addi	a0,a0,-1156 # 5b7c <_read+0x524>
     388:	0d8040ef          	jal	ra,4460 <iprintf>
     38c:	0141                	addi	sp,sp,16
     38e:	b559                	j	214 <__riscv_restore_0>
     390:	00006637          	lui	a2,0x6
     394:	af860613          	addi	a2,a2,-1288 # 5af8 <_read+0x4a0>
     398:	b7a5                	j	300 <USBH_PrintFsDiag+0x38>
     39a:	00006637          	lui	a2,0x6
     39e:	b0060613          	addi	a2,a2,-1280 # 5b00 <_read+0x4a8>
     3a2:	bfb9                	j	300 <USBH_PrintFsDiag+0x38>

000003a4 <USBH_MouseBridge_ReadBits.part.0>:
     3a4:	88aa                	mv	a7,a0
     3a6:	4701                	li	a4,0
     3a8:	4501                	li	a0,0
     3aa:	4305                	li	t1,1
     3ac:	0ff77793          	andi	a5,a4,255
     3b0:	00d7e363          	bltu	a5,a3,3b6 <USBH_MouseBridge_ReadBits.part.0+0x12>
     3b4:	8082                	ret
     3b6:	00e607b3          	add	a5,a2,a4
     3ba:	07c2                	slli	a5,a5,0x10
     3bc:	83c1                	srli	a5,a5,0x10
     3be:	0037d813          	srli	a6,a5,0x3
     3c2:	feb879e3          	bgeu	a6,a1,3b4 <USBH_MouseBridge_ReadBits.part.0+0x10>
     3c6:	9846                	add	a6,a6,a7
     3c8:	00084803          	lbu	a6,0(a6)
     3cc:	8b9d                	andi	a5,a5,7
     3ce:	40f857b3          	sra	a5,a6,a5
     3d2:	8b85                	andi	a5,a5,1
     3d4:	c781                	beqz	a5,3dc <USBH_MouseBridge_ReadBits.part.0+0x38>
     3d6:	00e317b3          	sll	a5,t1,a4
     3da:	8d5d                	or	a0,a0,a5
     3dc:	0705                	addi	a4,a4,1
     3de:	b7f9                	j	3ac <USBH_MouseBridge_ReadBits.part.0+0x8>

000003e0 <USBH_MouseBridge_ReadSignedBits.part.1>:
     3e0:	e11ff2ef          	jal	t0,1f0 <__riscv_save_0>
     3e4:	8436                	mv	s0,a3
     3e6:	ca9d                	beqz	a3,41c <USBH_MouseBridge_ReadSignedBits.part.1+0x3c>
     3e8:	3f75                	jal	3a4 <USBH_MouseBridge_ReadBits.part.0>
     3ea:	47fd                	li	a5,31
     3ec:	0087ec63          	bltu	a5,s0,404 <USBH_MouseBridge_ReadSignedBits.part.1+0x24>
     3f0:	fff40793          	addi	a5,s0,-1
     3f4:	40f557b3          	sra	a5,a0,a5
     3f8:	8b85                	andi	a5,a5,1
     3fa:	c789                	beqz	a5,404 <USBH_MouseBridge_ReadSignedBits.part.1+0x24>
     3fc:	4785                	li	a5,1
     3fe:	00879433          	sll	s0,a5,s0
     402:	8d01                	sub	a0,a0,s0
     404:	77e1                	lui	a5,0xffff8
     406:	00f55363          	bge	a0,a5,40c <USBH_MouseBridge_ReadSignedBits.part.1+0x2c>
     40a:	7561                	lui	a0,0xffff8
     40c:	67a1                	lui	a5,0x8
     40e:	00f54463          	blt	a0,a5,416 <USBH_MouseBridge_ReadSignedBits.part.1+0x36>
     412:	fff78513          	addi	a0,a5,-1 # 7fff <_data_lma+0x203b>
     416:	0542                	slli	a0,a0,0x10
     418:	8541                	srai	a0,a0,0x10
     41a:	bbed                	j	214 <__riscv_restore_0>
     41c:	4501                	li	a0,0
     41e:	bfc9                	j	3f0 <USBH_MouseBridge_ReadSignedBits.part.1+0x10>

00000420 <USBH_MouseBridge_StoreReport.constprop.14>:
     420:	4789                	li	a5,2
     422:	22c7f663          	bgeu	a5,a2,64e <USBH_MouseBridge_StoreReport.constprop.14+0x22e>
     426:	47a5                	li	a5,9
     428:	22a7e363          	bltu	a5,a0,64e <USBH_MouseBridge_StoreReport.constprop.14+0x22e>
     42c:	478d                	li	a5,3
     42e:	22b7e063          	bltu	a5,a1,64e <USBH_MouseBridge_StoreReport.constprop.14+0x22e>
     432:	d97ff2ef          	jal	t0,1c8 <__riscv_save_10>
     436:	4751                	li	a4,20
     438:	05000693          	li	a3,80
     43c:	02e58733          	mul	a4,a1,a4
     440:	8ec18793          	addi	a5,gp,-1812 # 2000016c <Bridge_MouseMap>
     444:	7179                	addi	sp,sp,-48
     446:	84b2                	mv	s1,a2
     448:	892e                	mv	s2,a1
     44a:	8a2a                	mv	s4,a0
     44c:	c0c1cb83          	lbu	s7,-1012(gp) # 2000048c <Com_Buf>
     450:	02d506b3          	mul	a3,a0,a3
     454:	8ec18a93          	addi	s5,gp,-1812 # 2000016c <Bridge_MouseMap>
     458:	c0c18993          	addi	s3,gp,-1012 # 2000048c <Com_Buf>
     45c:	88018413          	addi	s0,gp,-1920 # 20000100 <_edata>
     460:	9736                	add	a4,a4,a3
     462:	97ba                	add	a5,a5,a4
     464:	2398                	lbu	a4,0(a5)
     466:	0027cc03          	lbu	s8,2(a5)
     46a:	14070d63          	beqz	a4,5c4 <USBH_MouseBridge_StoreReport.constprop.14+0x1a4>
     46e:	140c0963          	beqz	s8,5c0 <USBH_MouseBridge_StoreReport.constprop.14+0x1a0>
     472:	339c                	lbu	a5,1(a5)
     474:	15779863          	bne	a5,s7,5c4 <USBH_MouseBridge_StoreReport.constprop.14+0x1a4>
     478:	4ca1                	li	s9,8
     47a:	47d1                	li	a5,20
     47c:	05000713          	li	a4,80
     480:	02f907b3          	mul	a5,s2,a5
     484:	4501                	li	a0,0
     486:	02ea0733          	mul	a4,s4,a4
     48a:	97ba                	add	a5,a5,a4
     48c:	97d6                	add	a5,a5,s5
     48e:	23f4                	lbu	a3,6(a5)
     490:	ca89                	beqz	a3,4a2 <USBH_MouseBridge_StoreReport.constprop.14+0x82>
     492:	23d2                	lhu	a2,4(a5)
     494:	85a6                	mv	a1,s1
     496:	c0c18513          	addi	a0,gp,-1012 # 2000048c <Com_Buf>
     49a:	9666                	add	a2,a2,s9
     49c:	0642                	slli	a2,a2,0x10
     49e:	8241                	srli	a2,a2,0x10
     4a0:	3711                	jal	3a4 <USBH_MouseBridge_ReadBits.part.0>
     4a2:	47d1                	li	a5,20
     4a4:	05000713          	li	a4,80
     4a8:	02f907b3          	mul	a5,s2,a5
     4ac:	891d                	andi	a0,a0,7
     4ae:	b048                	sb	a0,5(s0)
     4b0:	4501                	li	a0,0
     4b2:	02ea0733          	mul	a4,s4,a4
     4b6:	97ba                	add	a5,a5,a4
     4b8:	97d6                	add	a5,a5,s5
     4ba:	27b4                	lbu	a3,10(a5)
     4bc:	ca89                	beqz	a3,4ce <USBH_MouseBridge_StoreReport.constprop.14+0xae>
     4be:	2792                	lhu	a2,8(a5)
     4c0:	85a6                	mv	a1,s1
     4c2:	c0c18513          	addi	a0,gp,-1012 # 2000048c <Com_Buf>
     4c6:	9666                	add	a2,a2,s9
     4c8:	0642                	slli	a2,a2,0x10
     4ca:	8241                	srli	a2,a2,0x10
     4cc:	3f11                	jal	3e0 <USBH_MouseBridge_ReadSignedBits.part.1>
     4ce:	47d1                	li	a5,20
     4d0:	05000713          	li	a4,80
     4d4:	02f907b3          	mul	a5,s2,a5
     4d8:	a00a                	sh	a0,0(s0)
     4da:	4501                	li	a0,0
     4dc:	02ea0733          	mul	a4,s4,a4
     4e0:	97ba                	add	a5,a5,a4
     4e2:	97d6                	add	a5,a5,s5
     4e4:	27f4                	lbu	a3,14(a5)
     4e6:	ca89                	beqz	a3,4f8 <USBH_MouseBridge_StoreReport.constprop.14+0xd8>
     4e8:	27d2                	lhu	a2,12(a5)
     4ea:	85a6                	mv	a1,s1
     4ec:	c0c18513          	addi	a0,gp,-1012 # 2000048c <Com_Buf>
     4f0:	9666                	add	a2,a2,s9
     4f2:	0642                	slli	a2,a2,0x10
     4f4:	8241                	srli	a2,a2,0x10
     4f6:	35ed                	jal	3e0 <USBH_MouseBridge_ReadSignedBits.part.1>
     4f8:	47d1                	li	a5,20
     4fa:	05000713          	li	a4,80
     4fe:	02f907b3          	mul	a5,s2,a5
     502:	a02a                	sh	a0,2(s0)
     504:	4501                	li	a0,0
     506:	02ea0733          	mul	a4,s4,a4
     50a:	97ba                	add	a5,a5,a4
     50c:	97d6                	add	a5,a5,s5
     50e:	2bb4                	lbu	a3,18(a5)
     510:	ca99                	beqz	a3,526 <USBH_MouseBridge_StoreReport.constprop.14+0x106>
     512:	2b92                	lhu	a2,16(a5)
     514:	85a6                	mv	a1,s1
     516:	c0c18513          	addi	a0,gp,-1012 # 2000048c <Com_Buf>
     51a:	9666                	add	a2,a2,s9
     51c:	0642                	slli	a2,a2,0x10
     51e:	8241                	srli	a2,a2,0x10
     520:	35c1                	jal	3e0 <USBH_MouseBridge_ReadSignedBits.part.1>
     522:	0562                	slli	a0,a0,0x18
     524:	8561                	srai	a0,a0,0x18
     526:	a048                	sb	a0,4(s0)
     528:	4605                	li	a2,1
     52a:	4785                	li	a5,1
     52c:	88f18623          	sb	a5,-1908(gp) # 2000010c <Bridge_MouseReportValid>
     530:	a07c                	sb	a5,6(s0)
     532:	88818793          	addi	a5,gp,-1912 # 20000108 <Bridge_MouseReportCount>
     536:	4398                	lw	a4,0(a5)
     538:	4681                	li	a3,0
     53a:	0705                	addi	a4,a4,1
     53c:	c398                	sw	a4,0(a5)
     53e:	000c0d63          	beqz	s8,558 <USBH_MouseBridge_StoreReport.constprop.14+0x138>
     542:	45d1                	li	a1,20
     544:	05000513          	li	a0,80
     548:	02b90933          	mul	s2,s2,a1
     54c:	02aa0a33          	mul	s4,s4,a0
     550:	9952                	add	s2,s2,s4
     552:	9956                	add	s2,s2,s5
     554:	00194683          	lbu	a3,1(s2)
     558:	470d                	li	a4,3
     55a:	0019c783          	lbu	a5,1(s3)
     55e:	0029c803          	lbu	a6,2(s3)
     562:	0ee48263          	beq	s1,a4,646 <USBH_MouseBridge_StoreReport.constprop.14+0x226>
     566:	4591                	li	a1,4
     568:	0039c883          	lbu	a7,3(s3)
     56c:	4701                	li	a4,0
     56e:	00b48463          	beq	s1,a1,576 <USBH_MouseBridge_StoreReport.constprop.14+0x156>
     572:	0049c703          	lbu	a4,4(s3)
     576:	4515                	li	a0,5
     578:	4581                	li	a1,0
     57a:	00957463          	bgeu	a0,s1,582 <USBH_MouseBridge_StoreReport.constprop.14+0x162>
     57e:	0059c583          	lbu	a1,5(s3)
     582:	4319                	li	t1,6
     584:	4501                	li	a0,0
     586:	00937463          	bgeu	t1,s1,58e <USBH_MouseBridge_StoreReport.constprop.14+0x16e>
     58a:	0069c503          	lbu	a0,6(s3)
     58e:	00440303          	lb	t1,4(s0)
     592:	c42a                	sw	a0,8(sp)
     594:	00006537          	lui	a0,0x6
     598:	cc1a                	sw	t1,24(sp)
     59a:	00544303          	lbu	t1,5(s0)
     59e:	c22e                	sw	a1,4(sp)
     5a0:	c03a                	sw	a4,0(sp)
     5a2:	ca1a                	sw	t1,20(sp)
     5a4:	00241303          	lh	t1,2(s0)
     5a8:	875e                	mv	a4,s7
     5aa:	85a6                	mv	a1,s1
     5ac:	c81a                	sw	t1,16(sp)
     5ae:	00041303          	lh	t1,0(s0)
     5b2:	a9050513          	addi	a0,a0,-1392 # 5a90 <_read+0x438>
     5b6:	c61a                	sw	t1,12(sp)
     5b8:	6a9030ef          	jal	ra,4460 <iprintf>
     5bc:	6145                	addi	sp,sp,48
     5be:	b189                	j	200 <__riscv_restore_10>
     5c0:	4c81                	li	s9,0
     5c2:	bd65                	j	47a <USBH_MouseBridge_StoreReport.constprop.14+0x5a>
     5c4:	4715                	li	a4,5
     5c6:	0029c603          	lbu	a2,2(s3)
     5ca:	0019c783          	lbu	a5,1(s3)
     5ce:	04977a63          	bgeu	a4,s1,622 <USBH_MouseBridge_StoreReport.constprop.14+0x202>
     5d2:	4705                	li	a4,1
     5d4:	04eb9763          	bne	s7,a4,622 <USBH_MouseBridge_StoreReport.constprop.14+0x202>
     5d8:	0039c583          	lbu	a1,3(s3)
     5dc:	6705                	lui	a4,0x1
     5de:	f0070713          	addi	a4,a4,-256 # f00 <KM_AnalyzeHidReportDesc+0x68>
     5e2:	00859693          	slli	a3,a1,0x8
     5e6:	8ef9                	and	a3,a3,a4
     5e8:	0049c703          	lbu	a4,4(s3)
     5ec:	8ed1                	or	a3,a3,a2
     5ee:	8191                	srli	a1,a1,0x4
     5f0:	0712                	slli	a4,a4,0x4
     5f2:	8f4d                	or	a4,a4,a1
     5f4:	8b9d                	andi	a5,a5,7
     5f6:	02d11623          	sh	a3,44(sp)
     5fa:	4601                	li	a2,0
     5fc:	46b1                	li	a3,12
     5fe:	4589                	li	a1,2
     600:	1068                	addi	a0,sp,44
     602:	02e11723          	sh	a4,46(sp)
     606:	b05c                	sb	a5,5(s0)
     608:	3be1                	jal	3e0 <USBH_MouseBridge_ReadSignedBits.part.1>
     60a:	a00a                	sh	a0,0(s0)
     60c:	46b1                	li	a3,12
     60e:	4601                	li	a2,0
     610:	4589                	li	a1,2
     612:	02e10513          	addi	a0,sp,46
     616:	33e9                	jal	3e0 <USBH_MouseBridge_ReadSignedBits.part.1>
     618:	a02a                	sh	a0,2(s0)
     61a:	00040223          	sb	zero,4(s0)
     61e:	4601                	li	a2,0
     620:	b729                	j	52a <USBH_MouseBridge_StoreReport.constprop.14+0x10a>
     622:	07e2                	slli	a5,a5,0x18
     624:	01861693          	slli	a3,a2,0x18
     628:	007bf713          	andi	a4,s7,7
     62c:	87e1                	srai	a5,a5,0x18
     62e:	86e1                	srai	a3,a3,0x18
     630:	b058                	sb	a4,5(s0)
     632:	a01e                	sh	a5,0(s0)
     634:	a036                	sh	a3,2(s0)
     636:	470d                	li	a4,3
     638:	4781                	li	a5,0
     63a:	00e48463          	beq	s1,a4,642 <USBH_MouseBridge_StoreReport.constprop.14+0x222>
     63e:	00398783          	lb	a5,3(s3)
     642:	a05c                	sb	a5,4(s0)
     644:	bfe9                	j	61e <USBH_MouseBridge_StoreReport.constprop.14+0x1fe>
     646:	4881                	li	a7,0
     648:	4701                	li	a4,0
     64a:	4581                	li	a1,0
     64c:	bf1d                	j	582 <USBH_MouseBridge_StoreReport.constprop.14+0x162>
     64e:	8082                	ret

00000650 <USBH_MouseBridge_ReadReport>:
     650:	ba1ff2ef          	jal	t0,1f0 <__riscv_save_0>
     654:	88c18413          	addi	s0,gp,-1908 # 2000010c <Bridge_MouseReportValid>
     658:	201c                	lbu	a5,0(s0)
     65a:	c38d                	beqz	a5,67c <USBH_MouseBridge_ReadReport+0x2c>
     65c:	88018493          	addi	s1,gp,-1920 # 20000100 <_edata>
     660:	4621                	li	a2,8
     662:	88018593          	addi	a1,gp,-1920 # 20000100 <_edata>
     666:	549030ef          	jal	ra,43ae <memcpy>
     66a:	4785                	li	a5,1
     66c:	0004a023          	sw	zero,0(s1)
     670:	00048223          	sb	zero,4(s1)
     674:	00048323          	sb	zero,6(s1)
     678:	00040023          	sb	zero,0(s0)
     67c:	853e                	mv	a0,a5
     67e:	be59                	j	214 <__riscv_restore_0>

00000680 <USBH_MouseBridge_IsConfigured>:
     680:	20001737          	lui	a4,0x20001
     684:	30474683          	lbu	a3,772(a4) # 20001304 <RootHubDev>
     688:	4789                	li	a5,2
     68a:	30470713          	addi	a4,a4,772
     68e:	02d7ff63          	bgeu	a5,a3,6cc <USBH_MouseBridge_IsConfigured+0x4c>
     692:	3314                	lbu	a3,1(a4)
     694:	478d                	li	a5,3
     696:	02f69b63          	bne	a3,a5,6cc <USBH_MouseBridge_IsConfigured+0x4c>
     69a:	335c                	lbu	a5,5(a4)
     69c:	10a00693          	li	a3,266
     6a0:	4589                	li	a1,2
     6a2:	02d787b3          	mul	a5,a5,a3
     6a6:	200016b7          	lui	a3,0x20001
     6aa:	8a068693          	addi	a3,a3,-1888 # 200008a0 <HostCtl>
     6ae:	97b6                	add	a5,a5,a3
     6b0:	2390                	lbu	a2,0(a5)
     6b2:	4681                	li	a3,0
     6b4:	00d60c63          	beq	a2,a3,6cc <USBH_MouseBridge_IsConfigured+0x4c>
     6b8:	04278793          	addi	a5,a5,66
     6bc:	fc07c503          	lbu	a0,-64(a5)
     6c0:	04b50c63          	beq	a0,a1,718 <USBH_MouseBridge_IsConfigured+0x98>
     6c4:	0685                	addi	a3,a3,1
     6c6:	0ff6f693          	andi	a3,a3,255
     6ca:	b7ed                	j	6b4 <USBH_MouseBridge_IsConfigured+0x34>
     6cc:	3f74                	lbu	a3,31(a4)
     6ce:	4789                	li	a5,2
     6d0:	4501                	li	a0,0
     6d2:	04d7f463          	bgeu	a5,a3,71a <USBH_MouseBridge_IsConfigured+0x9a>
     6d6:	02074683          	lbu	a3,32(a4)
     6da:	478d                	li	a5,3
     6dc:	02f69f63          	bne	a3,a5,71a <USBH_MouseBridge_IsConfigured+0x9a>
     6e0:	02474783          	lbu	a5,36(a4)
     6e4:	10a00713          	li	a4,266
     6e8:	4609                	li	a2,2
     6ea:	02e787b3          	mul	a5,a5,a4
     6ee:	20001737          	lui	a4,0x20001
     6f2:	8a070713          	addi	a4,a4,-1888 # 200008a0 <HostCtl>
     6f6:	97ba                	add	a5,a5,a4
     6f8:	2394                	lbu	a3,0(a5)
     6fa:	4701                	li	a4,0
     6fc:	00e69463          	bne	a3,a4,704 <USBH_MouseBridge_IsConfigured+0x84>
     700:	4501                	li	a0,0
     702:	8082                	ret
     704:	04278793          	addi	a5,a5,66
     708:	fc07c583          	lbu	a1,-64(a5)
     70c:	00c58663          	beq	a1,a2,718 <USBH_MouseBridge_IsConfigured+0x98>
     710:	0705                	addi	a4,a4,1
     712:	0ff77713          	andi	a4,a4,255
     716:	b7dd                	j	6fc <USBH_MouseBridge_IsConfigured+0x7c>
     718:	4505                	li	a0,1
     71a:	8082                	ret

0000071c <USBH_MouseBridge_ReportCount>:
     71c:	8881a503          	lw	a0,-1912(gp) # 20000108 <Bridge_MouseReportCount>
     720:	8082                	ret

00000722 <TIM3_Init>:
     722:	acfff2ef          	jal	t0,1f0 <__riscv_save_0>
     726:	1101                	addi	sp,sp,-32
     728:	84aa                	mv	s1,a0
     72a:	842e                	mv	s0,a1
     72c:	4509                	li	a0,2
     72e:	4585                	li	a1,1
     730:	ca02                	sw	zero,20(sp)
     732:	cc02                	sw	zero,24(sp)
     734:	00011e23          	sh	zero,28(sp)
     738:	c602                	sw	zero,12(sp)
     73a:	c802                	sw	zero,16(sp)
     73c:	7e8030ef          	jal	ra,3f24 <RCC_APB1PeriphClockCmd>
     740:	82e0                	sh	s0,20(sp)
     742:	40000437          	lui	s0,0x40000
     746:	084c                	addi	a1,sp,20
     748:	40040513          	addi	a0,s0,1024 # 40000400 <_eusrstack+0x1fff8400>
     74c:	84e4                	sh	s1,24(sp)
     74e:	00011d23          	sh	zero,26(sp)
     752:	00011b23          	sh	zero,22(sp)
     756:	075030ef          	jal	ra,3fca <TIM_TimeBaseInit>
     75a:	4605                	li	a2,1
     75c:	4585                	li	a1,1
     75e:	40040513          	addi	a0,s0,1024
     762:	16f030ef          	jal	ra,40d0 <TIM_ITConfig>
     766:	12d00793          	li	a5,301
     76a:	867c                	sh	a5,12(sp)
     76c:	4789                	li	a5,2
     76e:	875c                	sb	a5,14(sp)
     770:	0068                	addi	a0,sp,12
     772:	4785                	li	a5,1
     774:	c83e                	sw	a5,16(sp)
     776:	5a0030ef          	jal	ra,3d16 <NVIC_Init>
     77a:	4585                	li	a1,1
     77c:	40040513          	addi	a0,s0,1024
     780:	139030ef          	jal	ra,40b8 <TIM_Cmd>
     784:	e000e7b7          	lui	a5,0xe000e
     788:	6709                	lui	a4,0x2
     78a:	10e7a223          	sw	a4,260(a5) # e000e104 <_eusrstack+0xc0006104>
     78e:	6105                	addi	sp,sp,32
     790:	b451                	j	214 <__riscv_restore_0>

00000792 <TIM3_IRQHandler>:
     792:	1141                	addi	sp,sp,-16
     794:	c622                	sw	s0,12(sp)
     796:	40000437          	lui	s0,0x40000
     79a:	4585                	li	a1,1
     79c:	40040513          	addi	a0,s0,1024 # 40000400 <_eusrstack+0x1fff8400>
     7a0:	c426                	sw	s1,8(sp)
     7a2:	141030ef          	jal	ra,40e2 <TIM_GetITStatus>
     7a6:	c91d                	beqz	a0,7dc <TIM3_IRQHandler+0x4a>
     7a8:	4585                	li	a1,1
     7aa:	40040513          	addi	a0,s0,1024
     7ae:	14d030ef          	jal	ra,40fa <TIM_ClearITPendingBit>
     7b2:	20001737          	lui	a4,0x20001
     7b6:	30470713          	addi	a4,a4,772 # 20001304 <RootHubDev>
     7ba:	200016b7          	lui	a3,0x20001
     7be:	03e70e93          	addi	t4,a4,62
     7c2:	4309                	li	t1,2
     7c4:	4e0d                	li	t3,3
     7c6:	4f25                	li	t5,9
     7c8:	8a068693          	addi	a3,a3,-1888 # 200008a0 <HostCtl>
     7cc:	10a00893          	li	a7,266
     7d0:	231c                	lbu	a5,0(a4)
     7d2:	00f36a63          	bltu	t1,a5,7e6 <TIM3_IRQHandler+0x54>
     7d6:	077d                	addi	a4,a4,31
     7d8:	ffd71ce3          	bne	a4,t4,7d0 <TIM3_IRQHandler+0x3e>
     7dc:	4432                	lw	s0,12(sp)
     7de:	44a2                	lw	s1,8(sp)
     7e0:	0141                	addi	sp,sp,16
     7e2:	30200073          	mret
     7e6:	3310                	lbu	a2,1(a4)
     7e8:	335c                	lbu	a5,5(a4)
     7ea:	05c61063          	bne	a2,t3,82a <__stack_size+0x2a>
     7ee:	031787b3          	mul	a5,a5,a7
     7f2:	4581                	li	a1,0
     7f4:	97b6                	add	a5,a5,a3
     7f6:	0007c283          	lbu	t0,0(a5)
     7fa:	fcb28ee3          	beq	t0,a1,7d6 <TIM3_IRQHandler+0x44>
     7fe:	0087cf83          	lbu	t6,8(a5)
     802:	853e                	mv	a0,a5
     804:	4601                	li	a2,0
     806:	a809                	j	818 <__stack_size+0x18>
     808:	02154803          	lbu	a6,33(a0)
     80c:	0605                	addi	a2,a2,1
     80e:	0ff67613          	andi	a2,a2,255
     812:	0805                	addi	a6,a6,1
     814:	030500a3          	sb	a6,33(a0)
     818:	0505                	addi	a0,a0,1
     81a:	fecf97e3          	bne	t6,a2,808 <__stack_size+0x8>
     81e:	0585                	addi	a1,a1,1
     820:	0ff5f593          	andi	a1,a1,255
     824:	04278793          	addi	a5,a5,66
     828:	bfc9                	j	7fa <TIM3_IRQHandler+0x68>
     82a:	fbe616e3          	bne	a2,t5,7d6 <TIM3_IRQHandler+0x44>
     82e:	031787b3          	mul	a5,a5,a7
     832:	00674383          	lbu	t2,6(a4)
     836:	85ba                	mv	a1,a4
     838:	97b6                	add	a5,a5,a3
     83a:	0227c603          	lbu	a2,34(a5)
     83e:	0605                	addi	a2,a2,1
     840:	02c78123          	sb	a2,34(a5)
     844:	4601                	li	a2,0
     846:	f8c388e3          	beq	t2,a2,7d6 <TIM3_IRQHandler+0x44>
     84a:	31fc                	lbu	a5,7(a1)
     84c:	04f37263          	bgeu	t1,a5,890 <__stack_size+0x90>
     850:	259c                	lbu	a5,8(a1)
     852:	03c79f63          	bne	a5,t3,890 <__stack_size+0x90>
     856:	25dc                	lbu	a5,12(a1)
     858:	4801                	li	a6,0
     85a:	031787b3          	mul	a5,a5,a7
     85e:	97b6                	add	a5,a5,a3
     860:	2384                	lbu	s1,0(a5)
     862:	03048763          	beq	s1,a6,890 <__stack_size+0x90>
     866:	2780                	lbu	s0,8(a5)
     868:	8fbe                	mv	t6,a5
     86a:	4501                	li	a0,0
     86c:	a809                	j	87e <__stack_size+0x7e>
     86e:	021fc283          	lbu	t0,33(t6)
     872:	0505                	addi	a0,a0,1
     874:	0ff57513          	andi	a0,a0,255
     878:	0285                	addi	t0,t0,1
     87a:	025f80a3          	sb	t0,33(t6)
     87e:	0f85                	addi	t6,t6,1
     880:	fea417e3          	bne	s0,a0,86e <__stack_size+0x6e>
     884:	0805                	addi	a6,a6,1
     886:	0ff87813          	andi	a6,a6,255
     88a:	04278793          	addi	a5,a5,66
     88e:	bfd1                	j	862 <__stack_size+0x62>
     890:	0605                	addi	a2,a2,1
     892:	0ff67613          	andi	a2,a2,255
     896:	0599                	addi	a1,a1,6
     898:	b77d                	j	846 <__stack_size+0x46>

0000089a <USBH_CheckRootHubPortStatus>:
     89a:	e911                	bnez	a0,8ae <USBH_CheckRootHubPortStatus+0x14>
     89c:	955ff2ef          	jal	t0,1f0 <__riscv_save_0>
     8a0:	200017b7          	lui	a5,0x20001
     8a4:	3047c503          	lbu	a0,772(a5) # 20001304 <RootHubDev>
     8a8:	6eb010ef          	jal	ra,2792 <USBFSH_CheckRootHubPortStatus>
     8ac:	b2a5                	j	214 <__riscv_restore_0>
     8ae:	0fb00513          	li	a0,251
     8b2:	8082                	ret

000008b4 <USBH_ResetRootHubPort>:
     8b4:	e519                	bnez	a0,8c2 <USBH_ResetRootHubPort+0xe>
     8b6:	93bff2ef          	jal	t0,1f0 <__riscv_save_0>
     8ba:	852e                	mv	a0,a1
     8bc:	75f010ef          	jal	ra,281a <USBFSH_ResetRootHubPort>
     8c0:	ba91                	j	214 <__riscv_restore_0>
     8c2:	8082                	ret

000008c4 <USBH_EnableRootHubPort>:
     8c4:	e911                	bnez	a0,8d8 <USBH_EnableRootHubPort+0x14>
     8c6:	92bff2ef          	jal	t0,1f0 <__riscv_save_0>
     8ca:	20001537          	lui	a0,0x20001
     8ce:	30750513          	addi	a0,a0,775 # 20001307 <RootHubDev+0x3>
     8d2:	799010ef          	jal	ra,286a <USBFSH_EnableRootHubPort>
     8d6:	ba3d                	j	214 <__riscv_restore_0>
     8d8:	0fb00513          	li	a0,251
     8dc:	8082                	ret

000008de <USBH_GetDeviceDescr>:
     8de:	ed01                	bnez	a0,8f6 <USBH_GetDeviceDescr+0x18>
     8e0:	911ff2ef          	jal	t0,1f0 <__riscv_save_0>
     8e4:	20001537          	lui	a0,0x20001
     8e8:	00c18593          	addi	a1,gp,12 # 2000088c <DevDesc_Buf>
     8ec:	30850513          	addi	a0,a0,776 # 20001308 <RootHubDev+0x4>
     8f0:	2a8020ef          	jal	ra,2b98 <USBFSH_GetDeviceDescr>
     8f4:	b205                	j	214 <__riscv_restore_0>
     8f6:	0fb00513          	li	a0,251
     8fa:	8082                	ret

000008fc <USBH_SetUsbAddress>:
     8fc:	ed19                	bnez	a0,91a <USBH_SetUsbAddress+0x1e>
     8fe:	8f3ff2ef          	jal	t0,1f0 <__riscv_save_0>
     902:	200017b7          	lui	a5,0x20001
     906:	30478793          	addi	a5,a5,772 # 20001304 <RootHubDev>
     90a:	23c8                	lbu	a0,4(a5)
     90c:	4709                	li	a4,2
     90e:	a3b8                	sb	a4,2(a5)
     910:	4589                	li	a1,2
     912:	396020ef          	jal	ra,2ca8 <USBFSH_SetUsbAddress>
     916:	8ffff06f          	j	214 <__riscv_restore_0>
     91a:	0fb00513          	li	a0,251
     91e:	8082                	ret

00000920 <USBH_GetConfigDescr>:
     920:	e105                	bnez	a0,940 <USBH_GetConfigDescr+0x20>
     922:	8cfff2ef          	jal	t0,1f0 <__riscv_save_0>
     926:	200017b7          	lui	a5,0x20001
     92a:	3087c503          	lbu	a0,776(a5) # 20001308 <RootHubDev+0x4>
     92e:	86ae                	mv	a3,a1
     930:	40000613          	li	a2,1024
     934:	c0c18593          	addi	a1,gp,-1012 # 2000048c <Com_Buf>
     938:	2a2020ef          	jal	ra,2bda <USBFSH_GetConfigDescr>
     93c:	8d9ff06f          	j	214 <__riscv_restore_0>
     940:	0fb00513          	li	a0,251
     944:	8082                	ret

00000946 <USBH_AnalyseType>:
     946:	2158                	lbu	a4,4(a0)
     948:	46a1                	li	a3,8
     94a:	00d70563          	beq	a4,a3,954 <USBH_AnalyseType+0xe>
     94e:	25fc                	lbu	a5,14(a1)
     950:	00d79563          	bne	a5,a3,95a <USBH_AnalyseType+0x14>
     954:	47a1                	li	a5,8
     956:	a21c                	sb	a5,0(a2)
     958:	8082                	ret
     95a:	469d                	li	a3,7
     95c:	00d70463          	beq	a4,a3,964 <USBH_AnalyseType+0x1e>
     960:	00d79463          	bne	a5,a3,968 <USBH_AnalyseType+0x22>
     964:	479d                	li	a5,7
     966:	bfc5                	j	956 <USBH_AnalyseType+0x10>
     968:	468d                	li	a3,3
     96a:	00d70463          	beq	a4,a3,972 <USBH_AnalyseType+0x2c>
     96e:	00d79463          	bne	a5,a3,976 <USBH_AnalyseType+0x30>
     972:	478d                	li	a5,3
     974:	b7cd                	j	956 <USBH_AnalyseType+0x10>
     976:	46a5                	li	a3,9
     978:	00d70463          	beq	a4,a3,980 <USBH_AnalyseType+0x3a>
     97c:	00d79463          	bne	a5,a3,984 <USBH_AnalyseType+0x3e>
     980:	47a5                	li	a5,9
     982:	bfd1                	j	956 <USBH_AnalyseType+0x10>
     984:	57fd                	li	a5,-1
     986:	bfc1                	j	956 <USBH_AnalyseType+0x10>

00000988 <USBH_SetUsbConfig>:
     988:	e919                	bnez	a0,99e <USBH_SetUsbConfig+0x16>
     98a:	867ff2ef          	jal	t0,1f0 <__riscv_save_0>
     98e:	200017b7          	lui	a5,0x20001
     992:	3087c503          	lbu	a0,776(a5) # 20001308 <RootHubDev+0x4>
     996:	34c020ef          	jal	ra,2ce2 <USBFSH_SetUsbConfig>
     99a:	87bff06f          	j	214 <__riscv_restore_0>
     99e:	0fb00513          	li	a0,251
     9a2:	8082                	ret

000009a4 <USBH_GetStrDescr>:
     9a4:	ed01                	bnez	a0,9bc <USBH_GetStrDescr+0x18>
     9a6:	84bff2ef          	jal	t0,1f0 <__riscv_save_0>
     9aa:	87ae                	mv	a5,a1
     9ac:	85b2                	mv	a1,a2
     9ae:	853e                	mv	a0,a5
     9b0:	c0c18613          	addi	a2,gp,-1012 # 2000048c <Com_Buf>
     9b4:	296020ef          	jal	ra,2c4a <USBFSH_GetStrDescr>
     9b8:	85dff06f          	j	214 <__riscv_restore_0>
     9bc:	0fb00513          	li	a0,251
     9c0:	8082                	ret

000009c2 <USBH_GetHidData>:
     9c2:	e121                	bnez	a0,a02 <USBH_GetHidData+0x40>
     9c4:	82dff2ef          	jal	t0,1f0 <__riscv_save_0>
     9c8:	8832                	mv	a6,a2
     9ca:	04200513          	li	a0,66
     9ce:	02a80533          	mul	a0,a6,a0
     9d2:	10a00813          	li	a6,266
     9d6:	8336                	mv	t1,a3
     9d8:	01a30893          	addi	a7,t1,26
     9dc:	86be                	mv	a3,a5
     9de:	863a                	mv	a2,a4
     9e0:	03058833          	mul	a6,a1,a6
     9e4:	200015b7          	lui	a1,0x20001
     9e8:	98aa                	add	a7,a7,a0
     9ea:	8a058593          	addi	a1,a1,-1888 # 200008a0 <HostCtl>
     9ee:	9542                	add	a0,a0,a6
     9f0:	952e                	add	a0,a0,a1
     9f2:	951a                	add	a0,a0,t1
     9f4:	3508                	lbu	a0,9(a0)
     9f6:	98c2                	add	a7,a7,a6
     9f8:	95c6                	add	a1,a1,a7
     9fa:	334020ef          	jal	ra,2d2e <USBFSH_GetEndpData>
     9fe:	817ff06f          	j	214 <__riscv_restore_0>
     a02:	0fb00513          	li	a0,251
     a06:	8082                	ret

00000a08 <USBH_SendHidData>:
     a08:	e129                	bnez	a0,a4a <USBH_SendHidData+0x42>
     a0a:	fe6ff2ef          	jal	t0,1f0 <__riscv_save_0>
     a0e:	8832                	mv	a6,a2
     a10:	04200513          	li	a0,66
     a14:	02a80533          	mul	a0,a6,a0
     a18:	10a00813          	li	a6,266
     a1c:	8336                	mv	t1,a3
     a1e:	03830893          	addi	a7,t1,56
     a22:	86be                	mv	a3,a5
     a24:	863a                	mv	a2,a4
     a26:	03058833          	mul	a6,a1,a6
     a2a:	200015b7          	lui	a1,0x20001
     a2e:	98aa                	add	a7,a7,a0
     a30:	8a058593          	addi	a1,a1,-1888 # 200008a0 <HostCtl>
     a34:	9542                	add	a0,a0,a6
     a36:	952e                	add	a0,a0,a1
     a38:	951a                	add	a0,a0,t1
     a3a:	02754503          	lbu	a0,39(a0)
     a3e:	98c2                	add	a7,a7,a6
     a40:	95c6                	add	a1,a1,a7
     a42:	334020ef          	jal	ra,2d76 <USBFSH_SendEndpData>
     a46:	fceff06f          	j	214 <__riscv_restore_0>
     a4a:	0fb00513          	li	a0,251
     a4e:	8082                	ret

00000a50 <USBH_ClearEndpStall>:
     a50:	e919                	bnez	a0,a66 <USBH_ClearEndpStall+0x16>
     a52:	f9eff2ef          	jal	t0,1f0 <__riscv_save_0>
     a56:	200017b7          	lui	a5,0x20001
     a5a:	3087c503          	lbu	a0,776(a5) # 20001308 <RootHubDev+0x4>
     a5e:	2aa020ef          	jal	ra,2d08 <USBFSH_ClearEndpStall>
     a62:	fb2ff06f          	j	214 <__riscv_restore_0>
     a66:	0fb00513          	li	a0,251
     a6a:	8082                	ret

00000a6c <USBH_EnumRootDevice>:
     a6c:	f54ff2ef          	jal	t0,1c0 <__riscv_save_12>
     a70:	84aa                	mv	s1,a0
     a72:	00006537          	lui	a0,0x6
     a76:	1101                	addi	sp,sp,-32
     a78:	86450513          	addi	a0,a0,-1948 # 5864 <_read+0x20c>
     a7c:	2f9030ef          	jal	ra,4574 <puts>
     a80:	47fd                	li	a5,31
     a82:	02f487b3          	mul	a5,s1,a5
     a86:	20001937          	lui	s2,0x20001
     a8a:	30490913          	addi	s2,s2,772 # 20001304 <RootHubDev>
     a8e:	4401                	li	s0,0
     a90:	00c18c93          	addi	s9,gp,12 # 2000088c <DevDesc_Buf>
     a94:	c0c18c13          	addi	s8,gp,-1012 # 2000048c <Com_Buf>
     a98:	00178a93          	addi	s5,a5,1
     a9c:	9aca                	add	s5,s5,s2
     a9e:	993e                	add	s2,s2,a5
     aa0:	06400513          	li	a0,100
     aa4:	7f4030ef          	jal	ra,4298 <Delay_Ms>
     aa8:	0405                	addi	s0,s0,1
     aaa:	0ff47413          	andi	s0,s0,255
     aae:	4521                	li	a0,8
     ab0:	00851533          	sll	a0,a0,s0
     ab4:	7e4030ef          	jal	ra,4298 <Delay_Ms>
     ab8:	4581                	li	a1,0
     aba:	8526                	mv	a0,s1
     abc:	3be5                	jal	8b4 <USBH_ResetRootHubPort>
     abe:	4981                	li	s3,0
     ac0:	4d81                	li	s11,0
     ac2:	4d19                	li	s10,6
     ac4:	06400a13          	li	s4,100
     ac8:	8526                	mv	a0,s1
     aca:	3bed                	jal	8c4 <USBH_EnableRootHubPort>
     acc:	e519                	bnez	a0,ada <USBH_EnumRootDevice+0x6e>
     ace:	0d85                	addi	s11,s11,1
     ad0:	0ffdfd93          	andi	s11,s11,255
     ad4:	13bd6363          	bltu	s10,s11,bfa <USBH_EnumRootDevice+0x18e>
     ad8:	4981                	li	s3,0
     ada:	0985                	addi	s3,s3,1
     adc:	09c2                	slli	s3,s3,0x10
     ade:	4505                	li	a0,1
     ae0:	0109d993          	srli	s3,s3,0x10
     ae4:	7b4030ef          	jal	ra,4298 <Delay_Ms>
     ae8:	ff4990e3          	bne	s3,s4,ac8 <USBH_EnumRootDevice+0x5c>
     aec:	e499                	bnez	s1,afa <USBH_EnumRootDevice+0x8e>
     aee:	00006537          	lui	a0,0x6
     af2:	86c50513          	addi	a0,a0,-1940 # 586c <_read+0x214>
     af6:	fd2ff0ef          	jal	ra,2c8 <USBH_PrintFsDiag>
     afa:	4795                	li	a5,5
     afc:	fa87f2e3          	bgeu	a5,s0,aa0 <USBH_EnumRootDevice+0x34>
     b00:	45d9                	li	a1,22
     b02:	852e                	mv	a0,a1
     b04:	6105                	addi	sp,sp,32
     b06:	ef6ff06f          	j	1fc <__riscv_restore_12>
     b0a:	00006537          	lui	a0,0x6
     b0e:	8a850513          	addi	a0,a0,-1880 # 58a8 <_read+0x250>
     b12:	14f030ef          	jal	ra,4460 <iprintf>
     b16:	e499                	bnez	s1,b24 <USBH_EnumRootDevice+0xb8>
     b18:	00006537          	lui	a0,0x6
     b1c:	8b450513          	addi	a0,a0,-1868 # 58b4 <_read+0x25c>
     b20:	fa8ff0ef          	jal	ra,2c8 <USBH_PrintFsDiag>
     b24:	4795                	li	a5,5
     b26:	f687fde3          	bgeu	a5,s0,aa0 <USBH_EnumRootDevice+0x34>
     b2a:	04500593          	li	a1,69
     b2e:	bfd1                	j	b02 <USBH_EnumRootDevice+0x96>
     b30:	000069b7          	lui	s3,0x6
     b34:	8c098513          	addi	a0,s3,-1856 # 58c0 <_read+0x268>
     b38:	23d030ef          	jal	ra,4574 <puts>
     b3c:	4515                	li	a0,5
     b3e:	75a030ef          	jal	ra,4298 <Delay_Ms>
     b42:	00006537          	lui	a0,0x6
     b46:	8c450513          	addi	a0,a0,-1852 # 58c4 <_read+0x26c>
     b4a:	117030ef          	jal	ra,4460 <iprintf>
     b4e:	01e10593          	addi	a1,sp,30
     b52:	8526                	mv	a0,s1
     b54:	33f1                	jal	920 <USBH_GetConfigDescr>
     b56:	85aa                	mv	a1,a0
     b58:	e92d                	bnez	a0,bca <USBH_EnumRootDevice+0x15e>
     b5a:	c0c18793          	addi	a5,gp,-1012 # 2000048c <Com_Buf>
     b5e:	0057cd03          	lbu	s10,5(a5)
     b62:	4781                	li	a5,0
     b64:	87b8                	lhu	a4,30(sp)
     b66:	04e7e563          	bltu	a5,a4,bb0 <USBH_EnumRootDevice+0x144>
     b6a:	850a0513          	addi	a0,s4,-1968
     b6e:	207030ef          	jal	ra,4574 <puts>
     b72:	8656                	mv	a2,s5
     b74:	85e2                	mv	a1,s8
     b76:	00c18513          	addi	a0,gp,12 # 2000088c <DevDesc_Buf>
     b7a:	33f1                	jal	946 <USBH_AnalyseType>
     b7c:	00194583          	lbu	a1,1(s2)
     b80:	00006537          	lui	a0,0x6
     b84:	8d450513          	addi	a0,a0,-1836 # 58d4 <_read+0x27c>
     b88:	0d9030ef          	jal	ra,4460 <iprintf>
     b8c:	00006537          	lui	a0,0x6
     b90:	8e450513          	addi	a0,a0,-1820 # 58e4 <_read+0x28c>
     b94:	0cd030ef          	jal	ra,4460 <iprintf>
     b98:	85ea                	mv	a1,s10
     b9a:	8526                	mv	a0,s1
     b9c:	33f5                	jal	988 <USBH_SetUsbConfig>
     b9e:	85aa                	mv	a1,a0
     ba0:	e129                	bnez	a0,be2 <USBH_EnumRootDevice+0x176>
     ba2:	c62a                	sw	a0,12(sp)
     ba4:	8c098513          	addi	a0,s3,-1856
     ba8:	1cd030ef          	jal	ra,4574 <puts>
     bac:	45b2                	lw	a1,12(sp)
     bae:	bf91                	j	b02 <USBH_EnumRootDevice+0x96>
     bb0:	00fc0733          	add	a4,s8,a5
     bb4:	230c                	lbu	a1,0(a4)
     bb6:	890d8513          	addi	a0,s11,-1904
     bba:	c63e                	sw	a5,12(sp)
     bbc:	0a5030ef          	jal	ra,4460 <iprintf>
     bc0:	47b2                	lw	a5,12(sp)
     bc2:	0785                	addi	a5,a5,1
     bc4:	07c2                	slli	a5,a5,0x10
     bc6:	83c1                	srli	a5,a5,0x10
     bc8:	bf71                	j	b64 <USBH_EnumRootDevice+0xf8>
     bca:	00006537          	lui	a0,0x6
     bce:	8a850513          	addi	a0,a0,-1880 # 58a8 <_read+0x250>
     bd2:	08f030ef          	jal	ra,4460 <iprintf>
     bd6:	4795                	li	a5,5
     bd8:	ec87f4e3          	bgeu	a5,s0,aa0 <USBH_EnumRootDevice+0x34>
     bdc:	04700593          	li	a1,71
     be0:	b70d                	j	b02 <USBH_EnumRootDevice+0x96>
     be2:	00006537          	lui	a0,0x6
     be6:	8a850513          	addi	a0,a0,-1880 # 58a8 <_read+0x250>
     bea:	077030ef          	jal	ra,4460 <iprintf>
     bee:	4795                	li	a5,5
     bf0:	ea87f8e3          	bgeu	a5,s0,aa0 <USBH_EnumRootDevice+0x34>
     bf4:	0fb00593          	li	a1,251
     bf8:	b729                	j	b02 <USBH_EnumRootDevice+0x96>
     bfa:	e499                	bnez	s1,c08 <USBH_EnumRootDevice+0x19c>
     bfc:	00006537          	lui	a0,0x6
     c00:	87850513          	addi	a0,a0,-1928 # 5878 <_read+0x220>
     c04:	ec4ff0ef          	jal	ra,2c8 <USBH_PrintFsDiag>
     c08:	00006537          	lui	a0,0x6
     c0c:	88050513          	addi	a0,a0,-1920 # 5880 <_read+0x228>
     c10:	051030ef          	jal	ra,4460 <iprintf>
     c14:	8526                	mv	a0,s1
     c16:	31e1                	jal	8de <USBH_GetDeviceDescr>
     c18:	85aa                	mv	a1,a0
     c1a:	ee0518e3          	bnez	a0,b0a <USBH_EnumRootDevice+0x9e>
     c1e:	00006a37          	lui	s4,0x6
     c22:	4981                	li	s3,0
     c24:	4d49                	li	s10,18
     c26:	8dd2                	mv	s11,s4
     c28:	013c87b3          	add	a5,s9,s3
     c2c:	238c                	lbu	a1,0(a5)
     c2e:	890a0513          	addi	a0,s4,-1904 # 5890 <_read+0x238>
     c32:	0985                	addi	s3,s3,1
     c34:	02d030ef          	jal	ra,4460 <iprintf>
     c38:	ffa998e3          	bne	s3,s10,c28 <USBH_EnumRootDevice+0x1bc>
     c3c:	00006a37          	lui	s4,0x6
     c40:	850a0513          	addi	a0,s4,-1968 # 5850 <_read+0x1f8>
     c44:	131030ef          	jal	ra,4574 <puts>
     c48:	00006537          	lui	a0,0x6
     c4c:	89850513          	addi	a0,a0,-1896 # 5898 <_read+0x240>
     c50:	011030ef          	jal	ra,4460 <iprintf>
     c54:	8526                	mv	a0,s1
     c56:	315d                	jal	8fc <USBH_SetUsbAddress>
     c58:	85aa                	mv	a1,a0
     c5a:	ec050be3          	beqz	a0,b30 <USBH_EnumRootDevice+0xc4>
     c5e:	00006537          	lui	a0,0x6
     c62:	8a850513          	addi	a0,a0,-1880 # 58a8 <_read+0x250>
     c66:	7fa030ef          	jal	ra,4460 <iprintf>
     c6a:	4795                	li	a5,5
     c6c:	e287fae3          	bgeu	a5,s0,aa0 <USBH_EnumRootDevice+0x34>
     c70:	04600593          	li	a1,70
     c74:	b579                	j	b02 <USBH_EnumRootDevice+0x96>

00000c76 <KM_AnalyzeConfigDesc>:
     c76:	d60ff2ef          	jal	t0,1d6 <__riscv_save_4>
     c7a:	47fd                	li	a5,31
     c7c:	02f507b3          	mul	a5,a0,a5
     c80:	20001a37          	lui	s4,0x20001
     c84:	304a0a13          	addi	s4,s4,772 # 20001304 <RootHubDev>
     c88:	8b2a                	mv	s6,a0
     c8a:	89ae                	mv	s3,a1
     c8c:	4481                	li	s1,0
     c8e:	4401                	li	s0,0
     c90:	c0c18913          	addi	s2,gp,-1012 # 2000048c <Com_Buf>
     c94:	20001ab7          	lui	s5,0x20001
     c98:	9a3e                	add	s4,s4,a5
     c9a:	00394783          	lbu	a5,3(s2)
     c9e:	00294703          	lbu	a4,2(s2)
     ca2:	07a2                	slli	a5,a5,0x8
     ca4:	97ba                	add	a5,a5,a4
     ca6:	1ef45663          	bge	s0,a5,e92 <KM_AnalyzeConfigDesc+0x21c>
     caa:	008907b3          	add	a5,s2,s0
     cae:	3394                	lbu	a3,1(a5)
     cb0:	4709                	li	a4,2
     cb2:	02e69763          	bne	a3,a4,ce0 <KM_AnalyzeConfigDesc+0x6a>
     cb6:	10a00713          	li	a4,266
     cba:	02e98733          	mul	a4,s3,a4
     cbe:	23d4                	lbu	a3,4(a5)
     cc0:	4611                	li	a2,4
     cc2:	8a0a8793          	addi	a5,s5,-1888 # 200008a0 <HostCtl>
     cc6:	97ba                	add	a5,a5,a4
     cc8:	00d67a63          	bgeu	a2,a3,cdc <KM_AnalyzeConfigDesc+0x66>
     ccc:	a390                	sb	a2,0(a5)
     cce:	008907b3          	add	a5,s2,s0
     cd2:	239c                	lbu	a5,0(a5)
     cd4:	943e                	add	s0,s0,a5
     cd6:	0442                	slli	s0,s0,0x10
     cd8:	8041                	srli	s0,s0,0x10
     cda:	b7c1                	j	c9a <KM_AnalyzeConfigDesc+0x24>
     cdc:	a394                	sb	a3,0(a5)
     cde:	bfc5                	j	cce <KM_AnalyzeConfigDesc+0x58>
     ce0:	4611                	li	a2,4
     ce2:	fec698e3          	bne	a3,a2,cd2 <KM_AnalyzeConfigDesc+0x5c>
     ce6:	1ad48663          	beq	s1,a3,e92 <KM_AnalyzeConfigDesc+0x21c>
     cea:	33d0                	lbu	a2,5(a5)
     cec:	468d                	li	a3,3
     cee:	18d61263          	bne	a2,a3,e72 <KM_AnalyzeConfigDesc+0x1fc>
     cf2:	23f0                	lbu	a2,6(a5)
     cf4:	4685                	li	a3,1
     cf6:	14c6e963          	bltu	a3,a2,e48 <KM_AnalyzeConfigDesc+0x1d2>
     cfa:	33fc                	lbu	a5,7(a5)
     cfc:	14f76663          	bltu	a4,a5,e48 <KM_AnalyzeConfigDesc+0x1d2>
     d00:	02d79863          	bne	a5,a3,d30 <KM_AnalyzeConfigDesc+0xba>
     d04:	04200713          	li	a4,66
     d08:	10a00613          	li	a2,266
     d0c:	02c98633          	mul	a2,s3,a2
     d10:	8a0a8693          	addi	a3,s5,-1888
     d14:	855a                	mv	a0,s6
     d16:	02e48733          	mul	a4,s1,a4
     d1a:	9732                	add	a4,a4,a2
     d1c:	9736                	add	a4,a4,a3
     d1e:	a33c                	sb	a5,2(a4)
     d20:	004a4583          	lbu	a1,4(s4)
     d24:	4701                	li	a4,0
     d26:	4681                	li	a3,0
     d28:	8626                	mv	a2,s1
     d2a:	100020ef          	jal	ra,2e2a <HID_SetIdle>
     d2e:	a019                	j	d34 <KM_AnalyzeConfigDesc+0xbe>
     d30:	fce78ae3          	beq	a5,a4,d04 <KM_AnalyzeConfigDesc+0x8e>
     d34:	008907b3          	add	a5,s2,s0
     d38:	239c                	lbu	a5,0(a5)
     d3a:	10a00713          	li	a4,266
     d3e:	02e98733          	mul	a4,s3,a4
     d42:	943e                	add	s0,s0,a5
     d44:	04200793          	li	a5,66
     d48:	02100313          	li	t1,33
     d4c:	00294e03          	lbu	t3,2(s2)
     d50:	0442                	slli	s0,s0,0x10
     d52:	8a0a8893          	addi	a7,s5,-1888
     d56:	8041                	srli	s0,s0,0x10
     d58:	4681                	li	a3,0
     d5a:	4501                	li	a0,0
     d5c:	02f487b3          	mul	a5,s1,a5
     d60:	4e91                	li	t4,4
     d62:	4f15                	li	t5,5
     d64:	97ba                	add	a5,a5,a4
     d66:	08500713          	li	a4,133
     d6a:	02648833          	mul	a6,s1,t1
     d6e:	97c6                	add	a5,a5,a7
     d70:	02e98733          	mul	a4,s3,a4
     d74:	983a                	add	a6,a6,a4
     d76:	00890733          	add	a4,s2,s0
     d7a:	3310                	lbu	a2,1(a4)
     d7c:	09d60d63          	beq	a2,t4,e16 <KM_AnalyzeConfigDesc+0x1a0>
     d80:	09c47b63          	bgeu	s0,t3,e16 <KM_AnalyzeConfigDesc+0x1a0>
     d84:	230c                	lbu	a1,0(a4)
     d86:	942e                	add	s0,s0,a1
     d88:	0442                	slli	s0,s0,0x10
     d8a:	8041                	srli	s0,s0,0x10
     d8c:	07e61d63          	bne	a2,t5,e06 <KM_AnalyzeConfigDesc+0x190>
     d90:	3350                	lbu	a2,5(a4)
     d92:	232c                	lbu	a1,2(a4)
     d94:	00474f83          	lbu	t6,4(a4)
     d98:	0622                	slli	a2,a2,0x8
     d9a:	00f5f393          	andi	t2,a1,15
     d9e:	967e                	add	a2,a2,t6
     da0:	05e2                	slli	a1,a1,0x18
     da2:	0642                	slli	a2,a2,0x10
     da4:	85e1                	srai	a1,a1,0x18
     da6:	00374283          	lbu	t0,3(a4)
     daa:	8241                	srli	a2,a2,0x10
     dac:	0205d863          	bgez	a1,ddc <KM_AnalyzeConfigDesc+0x166>
     db0:	2378                	lbu	a4,6(a4)
     db2:	00a78fb3          	add	t6,a5,a0
     db6:	00a805b3          	add	a1,a6,a0
     dba:	00ef8f23          	sb	a4,30(t6)
     dbe:	2798                	lbu	a4,8(a5)
     dc0:	05a1                	addi	a1,a1,8
     dc2:	0586                	slli	a1,a1,0x1
     dc4:	95c6                	add	a1,a1,a7
     dc6:	0705                	addi	a4,a4,1
     dc8:	0505                	addi	a0,a0,1
     dca:	007f84a3          	sb	t2,9(t6)
     dce:	005f86a3          	sb	t0,13(t6)
     dd2:	a1b2                	sh	a2,2(a1)
     dd4:	a798                	sb	a4,8(a5)
     dd6:	0ff57513          	andi	a0,a0,255
     dda:	bf71                	j	d76 <KM_AnalyzeConfigDesc+0x100>
     ddc:	00d78733          	add	a4,a5,a3
     de0:	027703a3          	sb	t2,39(a4)
     de4:	025705a3          	sb	t0,43(a4)
     de8:	00d80733          	add	a4,a6,a3
     dec:	0741                	addi	a4,a4,16
     dee:	0706                	slli	a4,a4,0x1
     df0:	9746                	add	a4,a4,a7
     df2:	ab12                	sh	a2,16(a4)
     df4:	0267c703          	lbu	a4,38(a5)
     df8:	0685                	addi	a3,a3,1
     dfa:	0ff6f693          	andi	a3,a3,255
     dfe:	0705                	addi	a4,a4,1
     e00:	02e78323          	sb	a4,38(a5)
     e04:	bf8d                	j	d76 <KM_AnalyzeConfigDesc+0x100>
     e06:	f66618e3          	bne	a2,t1,d76 <KM_AnalyzeConfigDesc+0x100>
     e0a:	2710                	lbu	a2,8(a4)
     e0c:	3378                	lbu	a4,7(a4)
     e0e:	0622                	slli	a2,a2,0x8
     e10:	8f51                	or	a4,a4,a2
     e12:	a3da                	sh	a4,4(a5)
     e14:	b78d                	j	d76 <KM_AnalyzeConfigDesc+0x100>
     e16:	4785                	li	a5,1
     e18:	02f69463          	bne	a3,a5,e40 <KM_AnalyzeConfigDesc+0x1ca>
     e1c:	04200793          	li	a5,66
     e20:	10a00613          	li	a2,266
     e24:	02f487b3          	mul	a5,s1,a5
     e28:	8a0a8713          	addi	a4,s5,-1888
     e2c:	02c98633          	mul	a2,s3,a2
     e30:	97b2                	add	a5,a5,a2
     e32:	97ba                	add	a5,a5,a4
     e34:	23b8                	lbu	a4,2(a5)
     e36:	00d71563          	bne	a4,a3,e40 <KM_AnalyzeConfigDesc+0x1ca>
     e3a:	577d                	li	a4,-1
     e3c:	04e78023          	sb	a4,64(a5)
     e40:	0485                	addi	s1,s1,1
     e42:	0ff4f493          	andi	s1,s1,255
     e46:	bd91                	j	c9a <KM_AnalyzeConfigDesc+0x24>
     e48:	04200793          	li	a5,66
     e4c:	10a00693          	li	a3,266
     e50:	02f487b3          	mul	a5,s1,a5
     e54:	8a0a8713          	addi	a4,s5,-1888
     e58:	02d986b3          	mul	a3,s3,a3
     e5c:	97b6                	add	a5,a5,a3
     e5e:	97ba                	add	a5,a5,a4
     e60:	577d                	li	a4,-1
     e62:	a3b8                	sb	a4,2(a5)
     e64:	008907b3          	add	a5,s2,s0
     e68:	239c                	lbu	a5,0(a5)
     e6a:	943e                	add	s0,s0,a5
     e6c:	0442                	slli	s0,s0,0x10
     e6e:	8041                	srli	s0,s0,0x10
     e70:	bfc1                	j	e40 <KM_AnalyzeConfigDesc+0x1ca>
     e72:	04200713          	li	a4,66
     e76:	02e484b3          	mul	s1,s1,a4
     e7a:	10a00713          	li	a4,266
     e7e:	200017b7          	lui	a5,0x20001
     e82:	02e989b3          	mul	s3,s3,a4
     e86:	99a6                	add	s3,s3,s1
     e88:	8a078493          	addi	s1,a5,-1888 # 200008a0 <HostCtl>
     e8c:	94ce                	add	s1,s1,s3
     e8e:	57fd                	li	a5,-1
     e90:	a0bc                	sb	a5,2(s1)
     e92:	4501                	li	a0,0
     e94:	b76ff06f          	j	20a <__riscv_restore_4>

00000e98 <KM_AnalyzeHidReportDesc>:
     e98:	c0c1c683          	lbu	a3,-1012(gp) # 2000048c <Com_Buf>
     e9c:	4795                	li	a5,5
     e9e:	18f69763          	bne	a3,a5,102c <KM_AnalyzeHidReportDesc+0x194>
     ea2:	c0c18713          	addi	a4,gp,-1012 # 2000048c <Com_Buf>
     ea6:	3314                	lbu	a3,1(a4)
     ea8:	4785                	li	a5,1
     eaa:	18f69163          	bne	a3,a5,102c <KM_AnalyzeHidReportDesc+0x194>
     eae:	2334                	lbu	a3,2(a4)
     eb0:	47a5                	li	a5,9
     eb2:	16f69d63          	bne	a3,a5,102c <KM_AnalyzeHidReportDesc+0x194>
     eb6:	3334                	lbu	a3,3(a4)
     eb8:	4799                	li	a5,6
     eba:	16f69963          	bne	a3,a5,102c <KM_AnalyzeHidReportDesc+0x194>
     ebe:	04200693          	li	a3,66
     ec2:	10a00813          	li	a6,266
     ec6:	03050833          	mul	a6,a0,a6
     eca:	200018b7          	lui	a7,0x20001
     ece:	8a088613          	addi	a2,a7,-1888 # 200008a0 <HostCtl>
     ed2:	1101                	addi	sp,sp,-32
     ed4:	ce22                	sw	s0,28(sp)
     ed6:	cc26                	sw	s1,24(sp)
     ed8:	ca4a                	sw	s2,20(sp)
     eda:	c84e                	sw	s3,16(sp)
     edc:	c652                	sw	s4,12(sp)
     ede:	c456                	sw	s5,8(sp)
     ee0:	02d586b3          	mul	a3,a1,a3
     ee4:	c25a                	sw	s6,4(sp)
     ee6:	c05e                	sw	s7,0(sp)
     ee8:	4791                	li	a5,4
     eea:	4301                	li	t1,0
     eec:	4e81                	li	t4,0
     eee:	4f01                	li	t5,0
     ef0:	4e01                	li	t3,0
     ef2:	8a088893          	addi	a7,a7,-1888
     ef6:	4411                	li	s0,4
     ef8:	96c2                	add	a3,a3,a6
     efa:	9636                	add	a2,a2,a3
     efc:	00465383          	lhu	t2,4(a2)
     f00:	4801                	li	a6,0
     f02:	07000f93          	li	t6,112
     f06:	08000493          	li	s1,128
     f0a:	09000293          	li	t0,144
     f0e:	4921                	li	s2,8
     f10:	49c1                	li	s3,16
     f12:	02000a13          	li	s4,32
     f16:	4a85                	li	s5,1
     f18:	0477e063          	bltu	a5,t2,f58 <KM_AnalyzeHidReportDesc+0xc0>
     f1c:	47a1                	li	a5,8
     f1e:	0ef31a63          	bne	t1,a5,1012 <KM_AnalyzeHidReportDesc+0x17a>
     f22:	04200793          	li	a5,66
     f26:	10a00713          	li	a4,266
     f2a:	02f587b3          	mul	a5,a1,a5
     f2e:	02e50733          	mul	a4,a0,a4
     f32:	97ba                	add	a5,a5,a4
     f34:	00f885b3          	add	a1,a7,a5
     f38:	0405c783          	lbu	a5,64(a1)
     f3c:	e781                	bnez	a5,f44 <KM_AnalyzeHidReportDesc+0xac>
     f3e:	4785                	li	a5,1
     f40:	04f58023          	sb	a5,64(a1)
     f44:	4472                	lw	s0,28(sp)
     f46:	44e2                	lw	s1,24(sp)
     f48:	4952                	lw	s2,20(sp)
     f4a:	49c2                	lw	s3,16(sp)
     f4c:	4a32                	lw	s4,12(sp)
     f4e:	4aa2                	lw	s5,8(sp)
     f50:	4b12                	lw	s6,4(sp)
     f52:	4b82                	lw	s7,0(sp)
     f54:	6105                	addi	sp,sp,32
     f56:	8082                	ret
     f58:	00f706b3          	add	a3,a4,a5
     f5c:	2294                	lbu	a3,0(a3)
     f5e:	0785                	addi	a5,a5,1
     f60:	07c2                	slli	a5,a5,0x10
     f62:	00c6fb93          	andi	s7,a3,12
     f66:	0036fb13          	andi	s6,a3,3
     f6a:	83c1                	srli	a5,a5,0x10
     f6c:	0f06f693          	andi	a3,a3,240
     f70:	028b8d63          	beq	s7,s0,faa <KM_AnalyzeHidReportDesc+0x112>
     f74:	072b8b63          	beq	s7,s2,fea <KM_AnalyzeHidReportDesc+0x152>
     f78:	020b9563          	bnez	s7,fa2 <KM_AnalyzeHidReportDesc+0x10a>
     f7c:	02569363          	bne	a3,t0,fa2 <KM_AnalyzeHidReportDesc+0x10a>
     f80:	02080163          	beqz	a6,fa2 <KM_AnalyzeHidReportDesc+0x10a>
     f84:	03ee86b3          	mul	a3,t4,t5
     f88:	9336                	add	t1,t1,a3
     f8a:	0342                	slli	t1,t1,0x10
     f8c:	01035313          	srli	t1,t1,0x10
     f90:	000e0963          	beqz	t3,fa2 <KM_AnalyzeHidReportDesc+0x10a>
     f94:	03c64683          	lbu	a3,60(a2)
     f98:	e689                	bnez	a3,fa2 <KM_AnalyzeHidReportDesc+0x10a>
     f9a:	03560e23          	sb	s5,60(a2)
     f9e:	03c60ea3          	sb	t3,61(a2)
     fa2:	97da                	add	a5,a5,s6
     fa4:	07c2                	slli	a5,a5,0x10
     fa6:	83c1                	srli	a5,a5,0x10
     fa8:	bf85                	j	f18 <KM_AnalyzeHidReportDesc+0x80>
     faa:	03f68b63          	beq	a3,t6,fe0 <KM_AnalyzeHidReportDesc+0x148>
     fae:	00dfeb63          	bltu	t6,a3,fc4 <KM_AnalyzeHidReportDesc+0x12c>
     fb2:	fae5                	bnez	a3,fa2 <KM_AnalyzeHidReportDesc+0x10a>
     fb4:	00f706b3          	add	a3,a4,a5
     fb8:	0006c803          	lbu	a6,0(a3)
     fbc:	1861                	addi	a6,a6,-8
     fbe:	00183813          	seqz	a6,a6
     fc2:	b7c5                	j	fa2 <KM_AnalyzeHidReportDesc+0x10a>
     fc4:	00968963          	beq	a3,s1,fd6 <KM_AnalyzeHidReportDesc+0x13e>
     fc8:	fc569de3          	bne	a3,t0,fa2 <KM_AnalyzeHidReportDesc+0x10a>
     fcc:	00f706b3          	add	a3,a4,a5
     fd0:	0006ce83          	lbu	t4,0(a3)
     fd4:	b7f9                	j	fa2 <KM_AnalyzeHidReportDesc+0x10a>
     fd6:	00f706b3          	add	a3,a4,a5
     fda:	0006ce03          	lbu	t3,0(a3)
     fde:	b7d1                	j	fa2 <KM_AnalyzeHidReportDesc+0x10a>
     fe0:	00f706b3          	add	a3,a4,a5
     fe4:	0006cf03          	lbu	t5,0(a3)
     fe8:	bf6d                	j	fa2 <KM_AnalyzeHidReportDesc+0x10a>
     fea:	01368c63          	beq	a3,s3,1002 <KM_AnalyzeHidReportDesc+0x16a>
     fee:	fb469ae3          	bne	a3,s4,fa2 <KM_AnalyzeHidReportDesc+0x10a>
     ff2:	fa0808e3          	beqz	a6,fa2 <KM_AnalyzeHidReportDesc+0x10a>
     ff6:	00f706b3          	add	a3,a4,a5
     ffa:	2294                	lbu	a3,0(a3)
     ffc:	02d60fa3          	sb	a3,63(a2)
    1000:	b74d                	j	fa2 <KM_AnalyzeHidReportDesc+0x10a>
    1002:	fa0800e3          	beqz	a6,fa2 <KM_AnalyzeHidReportDesc+0x10a>
    1006:	00f706b3          	add	a3,a4,a5
    100a:	2294                	lbu	a3,0(a3)
    100c:	02d60f23          	sb	a3,62(a2)
    1010:	bf49                	j	fa2 <KM_AnalyzeHidReportDesc+0x10a>
    1012:	04200793          	li	a5,66
    1016:	02f587b3          	mul	a5,a1,a5
    101a:	10a00593          	li	a1,266
    101e:	02b50533          	mul	a0,a0,a1
    1022:	97aa                	add	a5,a5,a0
    1024:	97c6                	add	a5,a5,a7
    1026:	04078023          	sb	zero,64(a5)
    102a:	bf29                	j	f44 <KM_AnalyzeHidReportDesc+0xac>
    102c:	8082                	ret

0000102e <KM_DealHidReportDesc>:
    102e:	992ff2ef          	jal	t0,1c0 <__riscv_save_12>
    1032:	10a00793          	li	a5,266
    1036:	02f58d33          	mul	s10,a1,a5
    103a:	20001737          	lui	a4,0x20001
    103e:	8a070793          	addi	a5,a4,-1888 # 200008a0 <HostCtl>
    1042:	7135                	addi	sp,sp,-160
    1044:	c6aa                	sw	a0,76(sp)
    1046:	8bae                	mv	s7,a1
    1048:	c8b2                	sw	a2,80(sp)
    104a:	cc02                	sw	zero,24(sp)
    104c:	8a070d93          	addi	s11,a4,-1888
    1050:	97ea                	add	a5,a5,s10
    1052:	0007ca03          	lbu	s4,0(a5)
    1056:	c2ea                	sw	s10,68(sp)
    1058:	cebe                	sw	a5,92(sp)
    105a:	460a0463          	beqz	s4,14c2 <KM_DealHidReportDesc+0x494>
    105e:	47f6                	lw	a5,92(sp)
    1060:	04200493          	li	s1,66
    1064:	2380                	lbu	s0,0(a5)
    1066:	4796                	lw	a5,68(sp)
    1068:	41440433          	sub	s0,s0,s4
    106c:	0ff47413          	andi	s0,s0,255
    1070:	029404b3          	mul	s1,s0,s1
    1074:	97a6                	add	a5,a5,s1
    1076:	97ee                	add	a5,a5,s11
    1078:	23de                	lhu	a5,4(a5)
    107a:	16078263          	beqz	a5,11de <KM_DealHidReportDesc+0x1b0>
    107e:	004d0793          	addi	a5,s10,4
    1082:	94be                	add	s1,s1,a5
    1084:	94ee                	add	s1,s1,s11
    1086:	000069b7          	lui	s3,0x6
    108a:	4915                	li	s2,5
    108c:	47e2                	lw	a5,24(sp)
    108e:	85a2                	mv	a1,s0
    1090:	0785                	addi	a5,a5,1
    1092:	0ff7f793          	andi	a5,a5,255
    1096:	cc3e                	sw	a5,24(sp)
    1098:	000057b7          	lui	a5,0x5
    109c:	70478513          	addi	a0,a5,1796 # 5704 <_read+0xac>
    10a0:	3c0030ef          	jal	ra,4460 <iprintf>
    10a4:	45c6                	lw	a1,80(sp)
    10a6:	4536                	lw	a0,76(sp)
    10a8:	8726                	mv	a4,s1
    10aa:	c0c18693          	addi	a3,gp,-1012 # 2000048c <Com_Buf>
    10ae:	8622                	mv	a2,s0
    10b0:	507010ef          	jal	ra,2db6 <HID_GetHidDesr>
    10b4:	85aa                	mv	a1,a0
    10b6:	3e051d63          	bnez	a0,14b0 <KM_DealHidReportDesc+0x482>
    10ba:	04200493          	li	s1,66
    10be:	029404b3          	mul	s1,s0,s1
    10c2:	4796                	lw	a5,68(sp)
    10c4:	4901                	li	s2,0
    10c6:	000069b7          	lui	s3,0x6
    10ca:	94be                	add	s1,s1,a5
    10cc:	94ee                	add	s1,s1,s11
    10ce:	a829                	j	10e8 <KM_DealHidReportDesc+0xba>
    10d0:	c0c18793          	addi	a5,gp,-1012 # 2000048c <Com_Buf>
    10d4:	97ca                	add	a5,a5,s2
    10d6:	238c                	lbu	a1,0(a5)
    10d8:	0905                	addi	s2,s2,1
    10da:	89098513          	addi	a0,s3,-1904 # 5890 <_read+0x238>
    10de:	0942                	slli	s2,s2,0x10
    10e0:	380030ef          	jal	ra,4460 <iprintf>
    10e4:	01095913          	srli	s2,s2,0x10
    10e8:	20de                	lhu	a5,4(s1)
    10ea:	fef963e3          	bltu	s2,a5,10d0 <KM_DealHidReportDesc+0xa2>
    10ee:	00006537          	lui	a0,0x6
    10f2:	85050513          	addi	a0,a0,-1968 # 5850 <_read+0x1f8>
    10f6:	47e030ef          	jal	ra,4574 <puts>
    10fa:	85a2                	mv	a1,s0
    10fc:	855e                	mv	a0,s7
    10fe:	3b69                	jal	e98 <KM_AnalyzeHidReportDesc>
    1100:	20b8                	lbu	a4,2(s1)
    1102:	4789                	li	a5,2
    1104:	0cf71d63          	bne	a4,a5,11de <KM_DealHidReportDesc+0x1b0>
    1108:	47a5                	li	a5,9
    110a:	0d77ea63          	bltu	a5,s7,11de <KM_DealHidReportDesc+0x1b0>
    110e:	478d                	li	a5,3
    1110:	0c87e763          	bltu	a5,s0,11de <KM_DealHidReportDesc+0x1b0>
    1114:	20de                	lhu	a5,4(s1)
    1116:	07810913          	addi	s2,sp,120
    111a:	dc82                	sw	zero,120(sp)
    111c:	ca3e                	sw	a5,20(sp)
    111e:	017c                	addi	a5,sp,140
    1120:	00092223          	sw	zero,4(s2)
    1124:	00092423          	sw	zero,8(s2)
    1128:	00092623          	sw	zero,12(s2)
    112c:	00092823          	sw	zero,16(s2)
    1130:	c702                	sw	zero,140(sp)
    1132:	c902                	sw	zero,144(sp)
    1134:	cb02                	sw	zero,148(sp)
    1136:	cd02                	sw	zero,152(sp)
    1138:	cf02                	sw	zero,156(sp)
    113a:	4b01                	li	s6,0
    113c:	d602                	sw	zero,44(sp)
    113e:	ce02                	sw	zero,28(sp)
    1140:	4981                	li	s3,0
    1142:	d202                	sw	zero,36(sp)
    1144:	4a81                	li	s5,0
    1146:	d002                	sw	zero,32(sp)
    1148:	4481                	li	s1,0
    114a:	4301                	li	t1,0
    114c:	c0c18c93          	addi	s9,gp,-1012 # 2000048c <Com_Buf>
    1150:	ccbe                	sw	a5,88(sp)
    1152:	47d2                	lw	a5,20(sp)
    1154:	08f4e963          	bltu	s1,a5,11e6 <KM_DealHidReportDesc+0x1b8>
    1158:	08214783          	lbu	a5,130(sp)
    115c:	cf99                	beqz	a5,117a <KM_DealHidReportDesc+0x14c>
    115e:	08614783          	lbu	a5,134(sp)
    1162:	cf81                	beqz	a5,117a <KM_DealHidReportDesc+0x14c>
    1164:	08c14783          	lbu	a5,140(sp)
    1168:	eb89                	bnez	a5,117a <KM_DealHidReportDesc+0x14c>
    116a:	4785                	li	a5,1
    116c:	4651                	li	a2,20
    116e:	18ac                	addi	a1,sp,120
    1170:	0168                	addi	a0,sp,140
    1172:	06f10c23          	sb	a5,120(sp)
    1176:	238030ef          	jal	ra,43ae <memcpy>
    117a:	47d1                	li	a5,20
    117c:	05000513          	li	a0,80
    1180:	02ab8533          	mul	a0,s7,a0
    1184:	4651                	li	a2,20
    1186:	016c                	addi	a1,sp,140
    1188:	02f407b3          	mul	a5,s0,a5
    118c:	97aa                	add	a5,a5,a0
    118e:	8ec18513          	addi	a0,gp,-1812 # 2000016c <Bridge_MouseMap>
    1192:	953e                	add	a0,a0,a5
    1194:	21a030ef          	jal	ra,43ae <memcpy>
    1198:	08e14783          	lbu	a5,142(sp)
    119c:	08c14603          	lbu	a2,140(sp)
    11a0:	4681                	li	a3,0
    11a2:	c399                	beqz	a5,11a8 <KM_DealHidReportDesc+0x17a>
    11a4:	08d14683          	lbu	a3,141(sp)
    11a8:	09c15783          	lhu	a5,156(sp)
    11ac:	09415883          	lhu	a7,148(sp)
    11b0:	09614803          	lbu	a6,150(sp)
    11b4:	c63e                	sw	a5,12(sp)
    11b6:	09e14783          	lbu	a5,158(sp)
    11ba:	09214703          	lbu	a4,146(sp)
    11be:	00005537          	lui	a0,0x5
    11c2:	c43e                	sw	a5,8(sp)
    11c4:	09815783          	lhu	a5,152(sp)
    11c8:	85a2                	mv	a1,s0
    11ca:	72050513          	addi	a0,a0,1824 # 5720 <_read+0xc8>
    11ce:	c23e                	sw	a5,4(sp)
    11d0:	09a14783          	lbu	a5,154(sp)
    11d4:	c03e                	sw	a5,0(sp)
    11d6:	09015783          	lhu	a5,144(sp)
    11da:	286030ef          	jal	ra,4460 <iprintf>
    11de:	1a7d                	addi	s4,s4,-1
    11e0:	0ffa7a13          	andi	s4,s4,255
    11e4:	bd9d                	j	105a <KM_DealHidReportDesc+0x2c>
    11e6:	009c8733          	add	a4,s9,s1
    11ea:	2318                	lbu	a4,0(a4)
    11ec:	00148793          	addi	a5,s1,1
    11f0:	07c2                	slli	a5,a5,0x10
    11f2:	0fe00693          	li	a3,254
    11f6:	83c1                	srli	a5,a5,0x10
    11f8:	02d71063          	bne	a4,a3,1218 <KM_DealHidReportDesc+0x1ea>
    11fc:	46d2                	lw	a3,20(sp)
    11fe:	00178713          	addi	a4,a5,1
    1202:	f4d75be3          	bge	a4,a3,1158 <KM_DealHidReportDesc+0x12a>
    1206:	97e6                	add	a5,a5,s9
    1208:	239c                	lbu	a5,0(a5)
    120a:	048d                	addi	s1,s1,3
    120c:	94be                	add	s1,s1,a5
    120e:	04c2                	slli	s1,s1,0x10
    1210:	80c1                	srli	s1,s1,0x10
    1212:	4b01                	li	s6,0
    1214:	4981                	li	s3,0
    1216:	bf35                	j	1152 <KM_DealHidReportDesc+0x124>
    1218:	00377613          	andi	a2,a4,3
    121c:	468d                	li	a3,3
    121e:	00d61363          	bne	a2,a3,1224 <KM_DealHidReportDesc+0x1f6>
    1222:	4611                	li	a2,4
    1224:	85be                	mv	a1,a5
    1226:	4501                	li	a0,0
    1228:	4681                	li	a3,0
    122a:	0ff57813          	andi	a6,a0,255
    122e:	0ec86563          	bltu	a6,a2,1318 <KM_DealHidReportDesc+0x2ea>
    1232:	00c784b3          	add	s1,a5,a2
    1236:	04c2                	slli	s1,s1,0x10
    1238:	4585                	li	a1,1
    123a:	80c1                	srli	s1,s1,0x10
    123c:	10b61063          	bne	a2,a1,133c <KM_DealHidReportDesc+0x30e>
    1240:	01869c13          	slli	s8,a3,0x18
    1244:	418c5c13          	srai	s8,s8,0x18
    1248:	0f077693          	andi	a3,a4,240
    124c:	4611                	li	a2,4
    124e:	8b31                	andi	a4,a4,12
    1250:	08214503          	lbu	a0,130(sp)
    1254:	18c70f63          	beq	a4,a2,13f2 <KM_DealHidReportDesc+0x3c4>
    1258:	4621                	li	a2,8
    125a:	20c70a63          	beq	a4,a2,146e <KM_DealHidReportDesc+0x440>
    125e:	ee071ae3          	bnez	a4,1152 <KM_DealHidReportDesc+0x124>
    1262:	08000793          	li	a5,128
    1266:	16f69f63          	bne	a3,a5,13e4 <KM_DealHidReportDesc+0x3b6>
    126a:	0ffc7693          	andi	a3,s8,255
    126e:	0016f793          	andi	a5,a3,1
    1272:	ebd1                	bnez	a5,1306 <KM_DealHidReportDesc+0x2d8>
    1274:	08815783          	lhu	a5,136(sp)
    1278:	08a14c03          	lbu	s8,138(sp)
    127c:	08015f03          	lhu	t5,128(sp)
    1280:	dc3e                	sw	a5,56(sp)
    1282:	08415783          	lhu	a5,132(sp)
    1286:	07c15283          	lhu	t0,124(sp)
    128a:	07e14703          	lbu	a4,126(sp)
    128e:	d83e                	sw	a5,48(sp)
    1290:	08614783          	lbu	a5,134(sp)
    1294:	8a91                	andi	a3,a3,4
    1296:	4601                	li	a2,0
    1298:	d43e                	sw	a5,40(sp)
    129a:	010a9793          	slli	a5,s5,0x10
    129e:	83c1                	srli	a5,a5,0x10
    12a0:	c4be                	sw	a5,72(sp)
    12a2:	c082                	sw	zero,64(sp)
    12a4:	879a                	mv	a5,t1
    12a6:	de02                	sw	zero,60(sp)
    12a8:	da02                	sw	zero,52(sp)
    12aa:	4e01                	li	t3,0
    12ac:	4e81                	li	t4,0
    12ae:	4f81                	li	t6,0
    12b0:	4381                	li	t2,0
    12b2:	4081                	li	ra,0
    12b4:	cab6                	sw	a3,84(sp)
    12b6:	5592                	lw	a1,36(sp)
    12b8:	0ff67693          	andi	a3,a2,255
    12bc:	08b6e963          	bltu	a3,a1,134e <KM_DealHidReportDesc+0x320>
    12c0:	00008463          	beqz	ra,12c8 <KM_DealHidReportDesc+0x29a>
    12c4:	06e10f23          	sb	a4,126(sp)
    12c8:	00038463          	beqz	t2,12d0 <KM_DealHidReportDesc+0x2a2>
    12cc:	06511e23          	sh	t0,124(sp)
    12d0:	000f8463          	beqz	t6,12d8 <KM_DealHidReportDesc+0x2aa>
    12d4:	09e11023          	sh	t5,128(sp)
    12d8:	000e8463          	beqz	t4,12e0 <KM_DealHidReportDesc+0x2b2>
    12dc:	08a10123          	sb	a0,130(sp)
    12e0:	000e0563          	beqz	t3,12ea <KM_DealHidReportDesc+0x2bc>
    12e4:	57c2                	lw	a5,48(sp)
    12e6:	08f11223          	sh	a5,132(sp)
    12ea:	57d2                	lw	a5,52(sp)
    12ec:	c781                	beqz	a5,12f4 <KM_DealHidReportDesc+0x2c6>
    12ee:	57a2                	lw	a5,40(sp)
    12f0:	08f10323          	sb	a5,134(sp)
    12f4:	57f2                	lw	a5,60(sp)
    12f6:	c781                	beqz	a5,12fe <KM_DealHidReportDesc+0x2d0>
    12f8:	57e2                	lw	a5,56(sp)
    12fa:	08f11423          	sh	a5,136(sp)
    12fe:	4786                	lw	a5,64(sp)
    1300:	c399                	beqz	a5,1306 <KM_DealHidReportDesc+0x2d8>
    1302:	09810523          	sb	s8,138(sp)
    1306:	5792                	lw	a5,36(sp)
    1308:	02fa87b3          	mul	a5,s5,a5
    130c:	979a                	add	a5,a5,t1
    130e:	01079313          	slli	t1,a5,0x10
    1312:	01035313          	srli	t1,t1,0x10
    1316:	bdf5                	j	1212 <KM_DealHidReportDesc+0x1e4>
    1318:	44d2                	lw	s1,20(sp)
    131a:	0095fc63          	bgeu	a1,s1,1332 <KM_DealHidReportDesc+0x304>
    131e:	00bc8833          	add	a6,s9,a1
    1322:	00084803          	lbu	a6,0(a6)
    1326:	00351893          	slli	a7,a0,0x3
    132a:	01181833          	sll	a6,a6,a7
    132e:	0106e6b3          	or	a3,a3,a6
    1332:	0585                	addi	a1,a1,1
    1334:	05c2                	slli	a1,a1,0x10
    1336:	81c1                	srli	a1,a1,0x10
    1338:	0505                	addi	a0,a0,1
    133a:	bdc5                	j	122a <KM_DealHidReportDesc+0x1fc>
    133c:	4589                	li	a1,2
    133e:	8c36                	mv	s8,a3
    1340:	f0b614e3          	bne	a2,a1,1248 <KM_DealHidReportDesc+0x21a>
    1344:	01069c13          	slli	s8,a3,0x10
    1348:	410c5c13          	srai	s8,s8,0x10
    134c:	bdf5                	j	1248 <KM_DealHidReportDesc+0x21a>
    134e:	0336f763          	bgeu	a3,s3,137c <KM_DealHidReportDesc+0x34e>
    1352:	10b4                	addi	a3,sp,104
    1354:	96b2                	add	a3,a3,a2
    1356:	228c                	lbu	a1,0(a3)
    1358:	5682                	lw	a3,32(sp)
    135a:	4825                	li	a6,9
    135c:	05069163          	bne	a3,a6,139e <KM_DealHidReportDesc+0x370>
    1360:	cf05                	beqz	a4,1398 <KM_DealHidReportDesc+0x36a>
    1362:	469d                	li	a3,7
    1364:	00e6e663          	bltu	a3,a4,1370 <KM_DealHidReportDesc+0x342>
    1368:	0705                	addi	a4,a4,1
    136a:	0ff77713          	andi	a4,a4,255
    136e:	4085                	li	ra,1
    1370:	46a6                	lw	a3,72(sp)
    1372:	0605                	addi	a2,a2,1
    1374:	97b6                	add	a5,a5,a3
    1376:	07c2                	slli	a5,a5,0x10
    1378:	83c1                	srli	a5,a5,0x10
    137a:	bf35                	j	12b6 <KM_DealHidReportDesc+0x288>
    137c:	4581                	li	a1,0
    137e:	fc0b0de3          	beqz	s6,1358 <KM_DealHidReportDesc+0x32a>
    1382:	4872                	lw	a6,28(sp)
    1384:	9832                	add	a6,a6,a2
    1386:	88c2                	mv	a7,a6
    1388:	5832                	lw	a6,44(sp)
    138a:	fd1847e3          	blt	a6,a7,1358 <KM_DealHidReportDesc+0x32a>
    138e:	45f2                	lw	a1,28(sp)
    1390:	96ae                	add	a3,a3,a1
    1392:	0ff6f593          	andi	a1,a3,255
    1396:	b7c9                	j	1358 <KM_DealHidReportDesc+0x32a>
    1398:	82be                	mv	t0,a5
    139a:	4385                	li	t2,1
    139c:	b7f1                	j	1368 <KM_DealHidReportDesc+0x33a>
    139e:	5682                	lw	a3,32(sp)
    13a0:	4805                	li	a6,1
    13a2:	fd0697e3          	bne	a3,a6,1370 <KM_DealHidReportDesc+0x342>
    13a6:	46d6                	lw	a3,84(sp)
    13a8:	d6e1                	beqz	a3,1370 <KM_DealHidReportDesc+0x342>
    13aa:	03000693          	li	a3,48
    13ae:	02d58063          	beq	a1,a3,13ce <KM_DealHidReportDesc+0x3a0>
    13b2:	03100693          	li	a3,49
    13b6:	02d58163          	beq	a1,a3,13d8 <KM_DealHidReportDesc+0x3aa>
    13ba:	03800693          	li	a3,56
    13be:	fad599e3          	bne	a1,a3,1370 <KM_DealHidReportDesc+0x342>
    13c2:	4685                	li	a3,1
    13c4:	8c56                	mv	s8,s5
    13c6:	dc3e                	sw	a5,56(sp)
    13c8:	c0b6                	sw	a3,64(sp)
    13ca:	de36                	sw	a3,60(sp)
    13cc:	b755                	j	1370 <KM_DealHidReportDesc+0x342>
    13ce:	8556                	mv	a0,s5
    13d0:	8f3e                	mv	t5,a5
    13d2:	4e85                	li	t4,1
    13d4:	4f85                	li	t6,1
    13d6:	bf69                	j	1370 <KM_DealHidReportDesc+0x342>
    13d8:	4685                	li	a3,1
    13da:	d456                	sw	s5,40(sp)
    13dc:	d83e                	sw	a5,48(sp)
    13de:	da36                	sw	a3,52(sp)
    13e0:	4e05                	li	t3,1
    13e2:	b779                	j	1370 <KM_DealHidReportDesc+0x342>
    13e4:	06068693          	addi	a3,a3,96
    13e8:	0d06f693          	andi	a3,a3,208
    13ec:	d60693e3          	bnez	a3,1152 <KM_DealHidReportDesc+0x124>
    13f0:	b50d                	j	1212 <KM_DealHidReportDesc+0x1e4>
    13f2:	e689                	bnez	a3,13fc <KM_DealHidReportDesc+0x3ce>
    13f4:	0ffc7793          	andi	a5,s8,255
    13f8:	d03e                	sw	a5,32(sp)
    13fa:	bba1                	j	1152 <KM_DealHidReportDesc+0x124>
    13fc:	ff068793          	addi	a5,a3,-16
    1400:	0e07f793          	andi	a5,a5,224
    1404:	d40787e3          	beqz	a5,1152 <KM_DealHidReportDesc+0x124>
    1408:	07000793          	li	a5,112
    140c:	00f69563          	bne	a3,a5,1416 <KM_DealHidReportDesc+0x3e8>
    1410:	0ffc7a93          	andi	s5,s8,255
    1414:	bb3d                	j	1152 <KM_DealHidReportDesc+0x124>
    1416:	08000793          	li	a5,128
    141a:	04f69263          	bne	a3,a5,145e <KM_DealHidReportDesc+0x430>
    141e:	cd19                	beqz	a0,143c <KM_DealHidReportDesc+0x40e>
    1420:	08614783          	lbu	a5,134(sp)
    1424:	cf81                	beqz	a5,143c <KM_DealHidReportDesc+0x40e>
    1426:	08c14783          	lbu	a5,140(sp)
    142a:	eb89                	bnez	a5,143c <KM_DealHidReportDesc+0x40e>
    142c:	4566                	lw	a0,88(sp)
    142e:	4785                	li	a5,1
    1430:	4651                	li	a2,20
    1432:	85ca                	mv	a1,s2
    1434:	06f10c23          	sb	a5,120(sp)
    1438:	777020ef          	jal	ra,43ae <memcpy>
    143c:	00092023          	sw	zero,0(s2)
    1440:	4785                	li	a5,1
    1442:	00092223          	sw	zero,4(s2)
    1446:	00092423          	sw	zero,8(s2)
    144a:	00092623          	sw	zero,12(s2)
    144e:	00092823          	sw	zero,16(s2)
    1452:	07810ca3          	sb	s8,121(sp)
    1456:	06f10d23          	sb	a5,122(sp)
    145a:	4301                	li	t1,0
    145c:	b9dd                	j	1152 <KM_DealHidReportDesc+0x124>
    145e:	09000793          	li	a5,144
    1462:	cef698e3          	bne	a3,a5,1152 <KM_DealHidReportDesc+0x124>
    1466:	0ffc7793          	andi	a5,s8,255
    146a:	d23e                	sw	a5,36(sp)
    146c:	b1dd                	j	1152 <KM_DealHidReportDesc+0x124>
    146e:	e28d                	bnez	a3,1490 <KM_DealHidReportDesc+0x462>
    1470:	473d                	li	a4,15
    1472:	cf3760e3          	bltu	a4,s3,1152 <KM_DealHidReportDesc+0x124>
    1476:	0ff7f793          	andi	a5,a5,255
    147a:	97e6                	add	a5,a5,s9
    147c:	239c                	lbu	a5,0(a5)
    147e:	1114                	addi	a3,sp,160
    1480:	00198713          	addi	a4,s3,1
    1484:	99b6                	add	s3,s3,a3
    1486:	fcf98423          	sb	a5,-56(s3)
    148a:	0ff77993          	andi	s3,a4,255
    148e:	b1d1                	j	1152 <KM_DealHidReportDesc+0x124>
    1490:	47c1                	li	a5,16
    1492:	00f69763          	bne	a3,a5,14a0 <KM_DealHidReportDesc+0x472>
    1496:	0ffc7793          	andi	a5,s8,255
    149a:	ce3e                	sw	a5,28(sp)
    149c:	4b05                	li	s6,1
    149e:	b955                	j	1152 <KM_DealHidReportDesc+0x124>
    14a0:	02000793          	li	a5,32
    14a4:	caf697e3          	bne	a3,a5,1152 <KM_DealHidReportDesc+0x124>
    14a8:	0ffc7793          	andi	a5,s8,255
    14ac:	d63e                	sw	a5,44(sp)
    14ae:	b7fd                	j	149c <KM_DealHidReportDesc+0x46e>
    14b0:	8a898513          	addi	a0,s3,-1880
    14b4:	7ad020ef          	jal	ra,4460 <iprintf>
    14b8:	47e2                	lw	a5,24(sp)
    14ba:	bcf979e3          	bgeu	s2,a5,108c <KM_DealHidReportDesc+0x5e>
    14be:	04800a13          	li	s4,72
    14c2:	8552                	mv	a0,s4
    14c4:	610d                	addi	sp,sp,160
    14c6:	d37fe06f          	j	1fc <__riscv_restore_12>

000014ca <HUB_AnalyzeConfigDesc>:
    14ca:	10a00713          	li	a4,266
    14ce:	02e50533          	mul	a0,a0,a4
    14d2:	c0c18793          	addi	a5,gp,-1012 # 2000048c <Com_Buf>
    14d6:	33b0                	lbu	a2,3(a5)
    14d8:	23bc                	lbu	a5,2(a5)
    14da:	200016b7          	lui	a3,0x20001
    14de:	0622                	slli	a2,a2,0x8
    14e0:	8a068693          	addi	a3,a3,-1888 # 200008a0 <HostCtl>
    14e4:	963e                	add	a2,a2,a5
    14e6:	c0c18593          	addi	a1,gp,-1012 # 2000048c <Com_Buf>
    14ea:	4781                	li	a5,0
    14ec:	4309                	li	t1,2
    14ee:	4811                	li	a6,4
    14f0:	4e25                	li	t3,9
    14f2:	4e95                	li	t4,5
    14f4:	9536                	add	a0,a0,a3
    14f6:	4885                	li	a7,1
    14f8:	00c7c463          	blt	a5,a2,1500 <HUB_AnalyzeConfigDesc+0x36>
    14fc:	4501                	li	a0,0
    14fe:	8082                	ret
    1500:	00f58733          	add	a4,a1,a5
    1504:	00074f03          	lbu	t5,0(a4)
    1508:	3314                	lbu	a3,1(a4)
    150a:	97fa                	add	a5,a5,t5
    150c:	07c2                	slli	a5,a5,0x10
    150e:	83c1                	srli	a5,a5,0x10
    1510:	00669a63          	bne	a3,t1,1524 <HUB_AnalyzeConfigDesc+0x5a>
    1514:	2358                	lbu	a4,4(a4)
    1516:	00e8f563          	bgeu	a7,a4,1520 <HUB_AnalyzeConfigDesc+0x56>
    151a:	01150023          	sb	a7,0(a0)
    151e:	bfe9                	j	14f8 <HUB_AnalyzeConfigDesc+0x2e>
    1520:	a118                	sb	a4,0(a0)
    1522:	bfd9                	j	14f8 <HUB_AnalyzeConfigDesc+0x2e>
    1524:	fd069ae3          	bne	a3,a6,14f8 <HUB_AnalyzeConfigDesc+0x2e>
    1528:	3358                	lbu	a4,5(a4)
    152a:	fdc717e3          	bne	a4,t3,14f8 <HUB_AnalyzeConfigDesc+0x2e>
    152e:	00f58733          	add	a4,a1,a5
    1532:	3314                	lbu	a3,1(a4)
    1534:	fd0682e3          	beq	a3,a6,14f8 <HUB_AnalyzeConfigDesc+0x2e>
    1538:	fcc7d0e3          	bge	a5,a2,14f8 <HUB_AnalyzeConfigDesc+0x2e>
    153c:	00074f03          	lbu	t5,0(a4)
    1540:	97fa                	add	a5,a5,t5
    1542:	07c2                	slli	a5,a5,0x10
    1544:	83c1                	srli	a5,a5,0x10
    1546:	ffd694e3          	bne	a3,t4,152e <HUB_AnalyzeConfigDesc+0x64>
    154a:	2334                	lbu	a3,2(a4)
    154c:	01869f13          	slli	t5,a3,0x18
    1550:	418f5f13          	srai	t5,t5,0x18
    1554:	fc0f5de3          	bgez	t5,152e <HUB_AnalyzeConfigDesc+0x64>
    1558:	8abd                	andi	a3,a3,15
    155a:	b514                	sb	a3,9(a0)
    155c:	3334                	lbu	a3,3(a4)
    155e:	00474f03          	lbu	t5,4(a4)
    1562:	b554                	sb	a3,13(a0)
    1564:	3354                	lbu	a3,5(a4)
    1566:	2378                	lbu	a4,6(a4)
    1568:	06a2                	slli	a3,a3,0x8
    156a:	ad78                	sb	a4,30(a0)
    156c:	2518                	lbu	a4,8(a0)
    156e:	96fa                	add	a3,a3,t5
    1570:	a936                	sh	a3,18(a0)
    1572:	0705                	addi	a4,a4,1
    1574:	a518                	sb	a4,8(a0)
    1576:	bf65                	j	152e <HUB_AnalyzeConfigDesc+0x64>

00001578 <USBH_EnumHubDevice>:
    1578:	c51fe2ef          	jal	t0,1c8 <__riscv_save_10>
    157c:	842a                	mv	s0,a0
    157e:	00005537          	lui	a0,0x5
    1582:	1141                	addi	sp,sp,-16
    1584:	77850513          	addi	a0,a0,1912 # 5778 <_read+0x120>
    1588:	8aae                	mv	s5,a1
    158a:	7eb020ef          	jal	ra,4574 <puts>
    158e:	00005537          	lui	a0,0x5
    1592:	78450513          	addi	a0,a0,1924 # 5784 <_read+0x12c>
    1596:	6cb020ef          	jal	ra,4460 <iprintf>
    159a:	477d                	li	a4,31
    159c:	02e40733          	mul	a4,s0,a4
    15a0:	20001a37          	lui	s4,0x20001
    15a4:	304a0793          	addi	a5,s4,772 # 20001304 <RootHubDev>
    15a8:	97ba                	add	a5,a5,a4
    15aa:	33c8                	lbu	a0,5(a5)
    15ac:	3f39                	jal	14ca <HUB_AnalyzeConfigDesc>
    15ae:	14051b63          	bnez	a0,1704 <USBH_EnumHubDevice+0x18c>
    15b2:	00006537          	lui	a0,0x6
    15b6:	8c050513          	addi	a0,a0,-1856 # 58c0 <_read+0x268>
    15ba:	7bb020ef          	jal	ra,4574 <puts>
    15be:	c0c18793          	addi	a5,gp,-1012 # 2000048c <Com_Buf>
    15c2:	23fc                	lbu	a5,6(a5)
    15c4:	304a0a13          	addi	s4,s4,772
    15c8:	c0c18493          	addi	s1,gp,-1012 # 2000048c <Com_Buf>
    15cc:	cf95                	beqz	a5,1608 <USBH_EnumHubDevice+0x90>
    15ce:	00005537          	lui	a0,0x5
    15d2:	79850513          	addi	a0,a0,1944 # 5798 <_read+0x140>
    15d6:	68b020ef          	jal	ra,4460 <iprintf>
    15da:	20f0                	lbu	a2,6(s1)
    15dc:	85d6                	mv	a1,s5
    15de:	8522                	mv	a0,s0
    15e0:	bc4ff0ef          	jal	ra,9a4 <USBH_GetStrDescr>
    15e4:	85aa                	mv	a1,a0
    15e6:	4981                	li	s3,0
    15e8:	14051363          	bnez	a0,172e <USBH_EnumHubDevice+0x1b6>
    15ec:	00006b37          	lui	s6,0x6
    15f0:	2098                	lbu	a4,0(s1)
    15f2:	01099793          	slli	a5,s3,0x10
    15f6:	83c1                	srli	a5,a5,0x10
    15f8:	12e7e263          	bltu	a5,a4,171c <USBH_EnumHubDevice+0x1a4>
    15fc:	00006537          	lui	a0,0x6
    1600:	85050513          	addi	a0,a0,-1968 # 5850 <_read+0x1f8>
    1604:	771020ef          	jal	ra,4574 <puts>
    1608:	00c18793          	addi	a5,gp,12 # 2000088c <DevDesc_Buf>
    160c:	27fc                	lbu	a5,14(a5)
    160e:	00c18993          	addi	s3,gp,12 # 2000088c <DevDesc_Buf>
    1612:	cf9d                	beqz	a5,1650 <USBH_EnumHubDevice+0xd8>
    1614:	00005537          	lui	a0,0x5
    1618:	7ac50513          	addi	a0,a0,1964 # 57ac <_read+0x154>
    161c:	645020ef          	jal	ra,4460 <iprintf>
    1620:	00e9c603          	lbu	a2,14(s3)
    1624:	85d6                	mv	a1,s5
    1626:	8522                	mv	a0,s0
    1628:	b7cff0ef          	jal	ra,9a4 <USBH_GetStrDescr>
    162c:	85aa                	mv	a1,a0
    162e:	4b01                	li	s6,0
    1630:	10051f63          	bnez	a0,174e <USBH_EnumHubDevice+0x1d6>
    1634:	00006bb7          	lui	s7,0x6
    1638:	2098                	lbu	a4,0(s1)
    163a:	010b1793          	slli	a5,s6,0x10
    163e:	83c1                	srli	a5,a5,0x10
    1640:	0ee7ee63          	bltu	a5,a4,173c <USBH_EnumHubDevice+0x1c4>
    1644:	00006537          	lui	a0,0x6
    1648:	85050513          	addi	a0,a0,-1968 # 5850 <_read+0x1f8>
    164c:	729020ef          	jal	ra,4574 <puts>
    1650:	00f9c783          	lbu	a5,15(s3)
    1654:	cf9d                	beqz	a5,1692 <USBH_EnumHubDevice+0x11a>
    1656:	00005537          	lui	a0,0x5
    165a:	7c050513          	addi	a0,a0,1984 # 57c0 <_read+0x168>
    165e:	603020ef          	jal	ra,4460 <iprintf>
    1662:	00f9c603          	lbu	a2,15(s3)
    1666:	85d6                	mv	a1,s5
    1668:	8522                	mv	a0,s0
    166a:	b3aff0ef          	jal	ra,9a4 <USBH_GetStrDescr>
    166e:	85aa                	mv	a1,a0
    1670:	4b01                	li	s6,0
    1672:	0e051e63          	bnez	a0,176e <USBH_EnumHubDevice+0x1f6>
    1676:	00006bb7          	lui	s7,0x6
    167a:	2098                	lbu	a4,0(s1)
    167c:	010b1793          	slli	a5,s6,0x10
    1680:	83c1                	srli	a5,a5,0x10
    1682:	0ce7ed63          	bltu	a5,a4,175c <USBH_EnumHubDevice+0x1e4>
    1686:	00006537          	lui	a0,0x6
    168a:	85050513          	addi	a0,a0,-1968 # 5850 <_read+0x1f8>
    168e:	6e7020ef          	jal	ra,4574 <puts>
    1692:	0109c783          	lbu	a5,16(s3)
    1696:	cf9d                	beqz	a5,16d4 <USBH_EnumHubDevice+0x15c>
    1698:	00005537          	lui	a0,0x5
    169c:	7d450513          	addi	a0,a0,2004 # 57d4 <_read+0x17c>
    16a0:	5c1020ef          	jal	ra,4460 <iprintf>
    16a4:	0109c603          	lbu	a2,16(s3)
    16a8:	85d6                	mv	a1,s5
    16aa:	8522                	mv	a0,s0
    16ac:	af8ff0ef          	jal	ra,9a4 <USBH_GetStrDescr>
    16b0:	85aa                	mv	a1,a0
    16b2:	4981                	li	s3,0
    16b4:	0c051d63          	bnez	a0,178e <USBH_EnumHubDevice+0x216>
    16b8:	00006b37          	lui	s6,0x6
    16bc:	2098                	lbu	a4,0(s1)
    16be:	01099793          	slli	a5,s3,0x10
    16c2:	83c1                	srli	a5,a5,0x10
    16c4:	0ae7ec63          	bltu	a5,a4,177c <USBH_EnumHubDevice+0x204>
    16c8:	00006537          	lui	a0,0x6
    16cc:	85050513          	addi	a0,a0,-1968 # 5850 <_read+0x1f8>
    16d0:	6a5020ef          	jal	ra,4574 <puts>
    16d4:	00005537          	lui	a0,0x5
    16d8:	7e850513          	addi	a0,a0,2024 # 57e8 <_read+0x190>
    16dc:	585020ef          	jal	ra,4460 <iprintf>
    16e0:	4b15                	li	s6,5
    16e2:	00006bb7          	lui	s7,0x6
    16e6:	00e10693          	addi	a3,sp,14
    16ea:	c0c18613          	addi	a2,gp,-1012 # 2000048c <Com_Buf>
    16ee:	85d6                	mv	a1,s5
    16f0:	8522                	mv	a0,s0
    16f2:	017010ef          	jal	ra,2f08 <HUB_GetClassDevDescr>
    16f6:	89aa                	mv	s3,a0
    16f8:	12051d63          	bnez	a0,1832 <USBH_EnumHubDevice+0x2ba>
    16fc:	4901                	li	s2,0
    16fe:	00006ab7          	lui	s5,0x6
    1702:	a845                	j	17b2 <USBH_EnumHubDevice+0x23a>
    1704:	89aa                	mv	s3,a0
    1706:	85aa                	mv	a1,a0
    1708:	00006537          	lui	a0,0x6
    170c:	8a850513          	addi	a0,a0,-1880 # 58a8 <_read+0x250>
    1710:	551020ef          	jal	ra,4460 <iprintf>
    1714:	854e                	mv	a0,s3
    1716:	0141                	addi	sp,sp,16
    1718:	ae9fe06f          	j	200 <__riscv_restore_10>
    171c:	013487b3          	add	a5,s1,s3
    1720:	238c                	lbu	a1,0(a5)
    1722:	890b0513          	addi	a0,s6,-1904 # 5890 <_read+0x238>
    1726:	0985                	addi	s3,s3,1
    1728:	539020ef          	jal	ra,4460 <iprintf>
    172c:	b5d1                	j	15f0 <USBH_EnumHubDevice+0x78>
    172e:	00006537          	lui	a0,0x6
    1732:	8a850513          	addi	a0,a0,-1880 # 58a8 <_read+0x250>
    1736:	52b020ef          	jal	ra,4460 <iprintf>
    173a:	b5f9                	j	1608 <USBH_EnumHubDevice+0x90>
    173c:	016487b3          	add	a5,s1,s6
    1740:	238c                	lbu	a1,0(a5)
    1742:	890b8513          	addi	a0,s7,-1904 # 5890 <_read+0x238>
    1746:	0b05                	addi	s6,s6,1
    1748:	519020ef          	jal	ra,4460 <iprintf>
    174c:	b5f5                	j	1638 <USBH_EnumHubDevice+0xc0>
    174e:	00006537          	lui	a0,0x6
    1752:	8a850513          	addi	a0,a0,-1880 # 58a8 <_read+0x250>
    1756:	50b020ef          	jal	ra,4460 <iprintf>
    175a:	bddd                	j	1650 <USBH_EnumHubDevice+0xd8>
    175c:	016487b3          	add	a5,s1,s6
    1760:	238c                	lbu	a1,0(a5)
    1762:	890b8513          	addi	a0,s7,-1904
    1766:	0b05                	addi	s6,s6,1
    1768:	4f9020ef          	jal	ra,4460 <iprintf>
    176c:	b739                	j	167a <USBH_EnumHubDevice+0x102>
    176e:	00006537          	lui	a0,0x6
    1772:	8a850513          	addi	a0,a0,-1880 # 58a8 <_read+0x250>
    1776:	4eb020ef          	jal	ra,4460 <iprintf>
    177a:	bf21                	j	1692 <USBH_EnumHubDevice+0x11a>
    177c:	013487b3          	add	a5,s1,s3
    1780:	238c                	lbu	a1,0(a5)
    1782:	890b0513          	addi	a0,s6,-1904
    1786:	0985                	addi	s3,s3,1
    1788:	4d9020ef          	jal	ra,4460 <iprintf>
    178c:	bf05                	j	16bc <USBH_EnumHubDevice+0x144>
    178e:	00006537          	lui	a0,0x6
    1792:	8a850513          	addi	a0,a0,-1880 # 58a8 <_read+0x250>
    1796:	4cb020ef          	jal	ra,4460 <iprintf>
    179a:	bf2d                	j	16d4 <USBH_EnumHubDevice+0x15c>
    179c:	012487b3          	add	a5,s1,s2
    17a0:	238c                	lbu	a1,0(a5)
    17a2:	0905                	addi	s2,s2,1
    17a4:	890a8513          	addi	a0,s5,-1904 # 5890 <_read+0x238>
    17a8:	0942                	slli	s2,s2,0x10
    17aa:	4b7020ef          	jal	ra,4460 <iprintf>
    17ae:	01095913          	srli	s2,s2,0x10
    17b2:	873c                	lhu	a5,14(sp)
    17b4:	fef964e3          	bltu	s2,a5,179c <USBH_EnumHubDevice+0x224>
    17b8:	00006537          	lui	a0,0x6
    17bc:	85050513          	addi	a0,a0,-1968 # 5850 <_read+0x1f8>
    17c0:	5b5020ef          	jal	ra,4574 <puts>
    17c4:	47fd                	li	a5,31
    17c6:	02f407b3          	mul	a5,s0,a5
    17ca:	20b4                	lbu	a3,2(s1)
    17cc:	4711                	li	a4,4
    17ce:	97d2                	add	a5,a5,s4
    17d0:	04d76f63          	bltu	a4,a3,182e <USBH_EnumHubDevice+0x2b6>
    17d4:	a3f4                	sb	a3,6(a5)
    17d6:	497d                	li	s2,31
    17d8:	03240933          	mul	s2,s0,s2
    17dc:	00005537          	lui	a0,0x5
    17e0:	85a2                	mv	a1,s0
    17e2:	7f850513          	addi	a0,a0,2040 # 57f8 <_read+0x1a0>
    17e6:	4485                	li	s1,1
    17e8:	4a91                	li	s5,4
    17ea:	9952                	add	s2,s2,s4
    17ec:	00694603          	lbu	a2,6(s2)
    17f0:	4a01                	li	s4,0
    17f2:	46f020ef          	jal	ra,4460 <iprintf>
    17f6:	00694783          	lbu	a5,6(s2)
    17fa:	f097ede3          	bltu	a5,s1,1714 <USBH_EnumHubDevice+0x19c>
    17fe:	00494583          	lbu	a1,4(s2)
    1802:	46a1                	li	a3,8
    1804:	0ff4f613          	andi	a2,s1,255
    1808:	8522                	mv	a0,s0
    180a:	6ca010ef          	jal	ra,2ed4 <HUB_SetPortFeature>
    180e:	cd01                	beqz	a0,1826 <USBH_EnumHubDevice+0x2ae>
    1810:	14fd                	addi	s1,s1,-1
    1812:	0a05                	addi	s4,s4,1
    1814:	4515                	li	a0,5
    1816:	04c2                	slli	s1,s1,0x10
    1818:	0ffa7a13          	andi	s4,s4,255
    181c:	27d020ef          	jal	ra,4298 <Delay_Ms>
    1820:	80c1                	srli	s1,s1,0x10
    1822:	034ae263          	bltu	s5,s4,1846 <USBH_EnumHubDevice+0x2ce>
    1826:	0485                	addi	s1,s1,1
    1828:	04c2                	slli	s1,s1,0x10
    182a:	80c1                	srli	s1,s1,0x10
    182c:	b7e9                	j	17f6 <USBH_EnumHubDevice+0x27e>
    182e:	a3f8                	sb	a4,6(a5)
    1830:	b75d                	j	17d6 <USBH_EnumHubDevice+0x25e>
    1832:	1b7d                	addi	s6,s6,-1
    1834:	85ce                	mv	a1,s3
    1836:	8a8b8513          	addi	a0,s7,-1880
    183a:	0ffb7b13          	andi	s6,s6,255
    183e:	423020ef          	jal	ra,4460 <iprintf>
    1842:	ea0b12e3          	bnez	s6,16e6 <USBH_EnumHubDevice+0x16e>
    1846:	0fe00993          	li	s3,254
    184a:	b5e9                	j	1714 <USBH_EnumHubDevice+0x19c>

0000184c <HUB_Port_PreEnum1>:
    184c:	98bfe2ef          	jal	t0,1d6 <__riscv_save_4>
    1850:	221c                	lbu	a5,0(a2)
    1852:	1141                	addi	sp,sp,-16
    1854:	40b7d7b3          	sra	a5,a5,a1
    1858:	8b85                	andi	a5,a5,1
    185a:	e799                	bnez	a5,1868 <HUB_Port_PreEnum1+0x1c>
    185c:	0fe00413          	li	s0,254
    1860:	8522                	mv	a0,s0
    1862:	0141                	addi	sp,sp,16
    1864:	9a7fe06f          	j	20a <__riscv_restore_4>
    1868:	44fd                	li	s1,31
    186a:	029507b3          	mul	a5,a0,s1
    186e:	200014b7          	lui	s1,0x20001
    1872:	30448493          	addi	s1,s1,772 # 20001304 <RootHubDev>
    1876:	862e                	mv	a2,a1
    1878:	892e                	mv	s2,a1
    187a:	0074                	addi	a3,sp,12
    187c:	89aa                	mv	s3,a0
    187e:	94be                	add	s1,s1,a5
    1880:	20cc                	lbu	a1,4(s1)
    1882:	5e4010ef          	jal	ra,2e66 <HUB_GetPortStatus>
    1886:	842a                	mv	s0,a0
    1888:	c909                	beqz	a0,189a <HUB_Port_PreEnum1+0x4e>
    188a:	85aa                	mv	a1,a0
    188c:	00005537          	lui	a0,0x5
    1890:	66850513          	addi	a0,a0,1640 # 5668 <_read+0x10>
    1894:	3cd020ef          	jal	ra,4460 <iprintf>
    1898:	b7e1                	j	1860 <HUB_Port_PreEnum1+0x14>
    189a:	871c                	lbu	a5,14(sp)
    189c:	8b85                	andi	a5,a5,1
    189e:	dfdd                	beqz	a5,185c <HUB_Port_PreEnum1+0x10>
    18a0:	20cc                	lbu	a1,4(s1)
    18a2:	46c1                	li	a3,16
    18a4:	864a                	mv	a2,s2
    18a6:	854e                	mv	a0,s3
    18a8:	5f8010ef          	jal	ra,2ea0 <HUB_ClearPortFeature>
    18ac:	842a                	mv	s0,a0
    18ae:	e11d                	bnez	a0,18d4 <HUB_Port_PreEnum1+0x88>
    18b0:	4aa9                	li	s5,10
    18b2:	20cc                	lbu	a1,4(s1)
    18b4:	0074                	addi	a3,sp,12
    18b6:	864a                	mv	a2,s2
    18b8:	854e                	mv	a0,s3
    18ba:	5ac010ef          	jal	ra,2e66 <HUB_GetPortStatus>
    18be:	8a2a                	mv	s4,a0
    18c0:	c105                	beqz	a0,18e0 <HUB_Port_PreEnum1+0x94>
    18c2:	85aa                	mv	a1,a0
    18c4:	00005537          	lui	a0,0x5
    18c8:	69050513          	addi	a0,a0,1680 # 5690 <_read+0x38>
    18cc:	395020ef          	jal	ra,4460 <iprintf>
    18d0:	8452                	mv	s0,s4
    18d2:	b779                	j	1860 <HUB_Port_PreEnum1+0x14>
    18d4:	85aa                	mv	a1,a0
    18d6:	00005537          	lui	a0,0x5
    18da:	67c50513          	addi	a0,a0,1660 # 567c <_read+0x24>
    18de:	bf5d                	j	1894 <HUB_Port_PreEnum1+0x48>
    18e0:	871c                	lbu	a5,14(sp)
    18e2:	0405                	addi	s0,s0,1
    18e4:	0ff47413          	andi	s0,s0,255
    18e8:	8b85                	andi	a5,a5,1
    18ea:	c781                	beqz	a5,18f2 <HUB_Port_PreEnum1+0xa6>
    18ec:	fd5413e3          	bne	s0,s5,18b2 <HUB_Port_PreEnum1+0x66>
    18f0:	b7b5                	j	185c <HUB_Port_PreEnum1+0x10>
    18f2:	47a9                	li	a5,10
    18f4:	f6f404e3          	beq	s0,a5,185c <HUB_Port_PreEnum1+0x10>
    18f8:	861c                	lbu	a5,12(sp)
    18fa:	8b85                	andi	a5,a5,1
    18fc:	f3a5                	bnez	a5,185c <HUB_Port_PreEnum1+0x10>
    18fe:	00005537          	lui	a0,0x5
    1902:	85ca                	mv	a1,s2
    1904:	6a450513          	addi	a0,a0,1700 # 56a4 <_read+0x4c>
    1908:	359020ef          	jal	ra,4460 <iprintf>
    190c:	4459                	li	s0,22
    190e:	bf89                	j	1860 <HUB_Port_PreEnum1+0x14>

00001910 <HUB_Port_PreEnum2>:
    1910:	8c7fe2ef          	jal	t0,1d6 <__riscv_save_4>
    1914:	221c                	lbu	a5,0(a2)
    1916:	1141                	addi	sp,sp,-16
    1918:	40b7d7b3          	sra	a5,a5,a1
    191c:	8b85                	andi	a5,a5,1
    191e:	e799                	bnez	a5,192c <HUB_Port_PreEnum2+0x1c>
    1920:	0fe00413          	li	s0,254
    1924:	8522                	mv	a0,s0
    1926:	0141                	addi	sp,sp,16
    1928:	8e3fe06f          	j	20a <__riscv_restore_4>
    192c:	47fd                	li	a5,31
    192e:	02f507b3          	mul	a5,a0,a5
    1932:	20001ab7          	lui	s5,0x20001
    1936:	304a8493          	addi	s1,s5,772 # 20001304 <RootHubDev>
    193a:	862e                	mv	a2,a1
    193c:	89ae                	mv	s3,a1
    193e:	4691                	li	a3,4
    1940:	8a2a                	mv	s4,a0
    1942:	304a8a93          	addi	s5,s5,772
    1946:	94be                	add	s1,s1,a5
    1948:	20cc                	lbu	a1,4(s1)
    194a:	58a010ef          	jal	ra,2ed4 <HUB_SetPortFeature>
    194e:	842a                	mv	s0,a0
    1950:	e515                	bnez	a0,197c <HUB_Port_PreEnum2+0x6c>
    1952:	8926                	mv	s2,s1
    1954:	06500b13          	li	s6,101
    1958:	00494583          	lbu	a1,4(s2)
    195c:	0074                	addi	a3,sp,12
    195e:	864e                	mv	a2,s3
    1960:	8552                	mv	a0,s4
    1962:	504010ef          	jal	ra,2e66 <HUB_GetPortStatus>
    1966:	84aa                	mv	s1,a0
    1968:	c115                	beqz	a0,198c <HUB_Port_PreEnum2+0x7c>
    196a:	85aa                	mv	a1,a0
    196c:	00005537          	lui	a0,0x5
    1970:	6cc50513          	addi	a0,a0,1740 # 56cc <_read+0x74>
    1974:	2ed020ef          	jal	ra,4460 <iprintf>
    1978:	8426                	mv	s0,s1
    197a:	b76d                	j	1924 <HUB_Port_PreEnum2+0x14>
    197c:	85aa                	mv	a1,a0
    197e:	00005537          	lui	a0,0x5
    1982:	6b850513          	addi	a0,a0,1720 # 56b8 <_read+0x60>
    1986:	2db020ef          	jal	ra,4460 <iprintf>
    198a:	bf69                	j	1924 <HUB_Port_PreEnum2+0x14>
    198c:	4505                	li	a0,1
    198e:	10b020ef          	jal	ra,4298 <Delay_Ms>
    1992:	871c                	lbu	a5,14(sp)
    1994:	0405                	addi	s0,s0,1
    1996:	0ff47413          	andi	s0,s0,255
    199a:	8bc1                	andi	a5,a5,16
    199c:	ef9d                	bnez	a5,19da <HUB_Port_PreEnum2+0xca>
    199e:	fb641de3          	bne	s0,s6,1958 <HUB_Port_PreEnum2+0x48>
    19a2:	47fd                	li	a5,31
    19a4:	02fa07b3          	mul	a5,s4,a5
    19a8:	46d1                	li	a3,20
    19aa:	864e                	mv	a2,s3
    19ac:	8552                	mv	a0,s4
    19ae:	00fa8933          	add	s2,s5,a5
    19b2:	00494583          	lbu	a1,4(s2)
    19b6:	4aad                	li	s5,11
    19b8:	4e8010ef          	jal	ra,2ea0 <HUB_ClearPortFeature>
    19bc:	00494583          	lbu	a1,4(s2)
    19c0:	0074                	addi	a3,sp,12
    19c2:	864e                	mv	a2,s3
    19c4:	8552                	mv	a0,s4
    19c6:	4a0010ef          	jal	ra,2e66 <HUB_GetPortStatus>
    19ca:	842a                	mv	s0,a0
    19cc:	cd01                	beqz	a0,19e4 <HUB_Port_PreEnum2+0xd4>
    19ce:	85aa                	mv	a1,a0
    19d0:	00005537          	lui	a0,0x5
    19d4:	6e050513          	addi	a0,a0,1760 # 56e0 <_read+0x88>
    19d8:	b77d                	j	1986 <HUB_Port_PreEnum2+0x76>
    19da:	06400793          	li	a5,100
    19de:	fcf412e3          	bne	s0,a5,19a2 <HUB_Port_PreEnum2+0x92>
    19e2:	bf3d                	j	1920 <HUB_Port_PreEnum2+0x10>
    19e4:	871c                	lbu	a5,14(sp)
    19e6:	0485                	addi	s1,s1,1
    19e8:	0ff4f493          	andi	s1,s1,255
    19ec:	8bc1                	andi	a5,a5,16
    19ee:	cf99                	beqz	a5,1a0c <HUB_Port_PreEnum2+0xfc>
    19f0:	fd5496e3          	bne	s1,s5,19bc <HUB_Port_PreEnum2+0xac>
    19f4:	861c                	lbu	a5,12(sp)
    19f6:	8b85                	andi	a5,a5,1
    19f8:	d785                	beqz	a5,1920 <HUB_Port_PreEnum2+0x10>
    19fa:	00005537          	lui	a0,0x5
    19fe:	85ce                	mv	a1,s3
    1a00:	6f450513          	addi	a0,a0,1780 # 56f4 <_read+0x9c>
    1a04:	25d020ef          	jal	ra,4460 <iprintf>
    1a08:	4455                	li	s0,21
    1a0a:	bf29                	j	1924 <HUB_Port_PreEnum2+0x14>
    1a0c:	47a9                	li	a5,10
    1a0e:	f0f489e3          	beq	s1,a5,1920 <HUB_Port_PreEnum2+0x10>
    1a12:	b7cd                	j	19f4 <HUB_Port_PreEnum2+0xe4>

00001a14 <HUB_CheckPortSpeed>:
    1a14:	fdcfe2ef          	jal	t0,1f0 <__riscv_save_0>
    1a18:	47fd                	li	a5,31
    1a1a:	02f50733          	mul	a4,a0,a5
    1a1e:	200017b7          	lui	a5,0x20001
    1a22:	30478793          	addi	a5,a5,772 # 20001304 <RootHubDev>
    1a26:	8432                	mv	s0,a2
    1a28:	86b2                	mv	a3,a2
    1a2a:	862e                	mv	a2,a1
    1a2c:	97ba                	add	a5,a5,a4
    1a2e:	23cc                	lbu	a1,4(a5)
    1a30:	436010ef          	jal	ra,2e66 <HUB_GetPortStatus>
    1a34:	e911                	bnez	a0,1a48 <HUB_CheckPortSpeed+0x34>
    1a36:	301c                	lbu	a5,1(s0)
    1a38:	0027f713          	andi	a4,a5,2
    1a3c:	e711                	bnez	a4,1a48 <HUB_CheckPortSpeed+0x34>
    1a3e:	0047f513          	andi	a0,a5,4
    1a42:	00a03533          	snez	a0,a0
    1a46:	0505                	addi	a0,a0,1
    1a48:	fccfe06f          	j	214 <__riscv_restore_0>

00001a4c <USBH_EnumHubPortDevice>:
    1a4c:	f74fe2ef          	jal	t0,1c0 <__riscv_save_12>
    1a50:	892a                	mv	s2,a0
    1a52:	00006537          	lui	a0,0x6
    1a56:	1141                	addi	sp,sp,-16
    1a58:	81c50513          	addi	a0,a0,-2020 # 581c <_read+0x1c4>
    1a5c:	89ae                	mv	s3,a1
    1a5e:	8c32                	mv	s8,a2
    1a60:	8ab6                	mv	s5,a3
    1a62:	313020ef          	jal	ra,4574 <puts>
    1a66:	4799                	li	a5,6
    1a68:	02f987b3          	mul	a5,s3,a5
    1a6c:	477d                	li	a4,31
    1a6e:	200014b7          	lui	s1,0x20001
    1a72:	30448a13          	addi	s4,s1,772 # 20001304 <RootHubDev>
    1a76:	4429                	li	s0,10
    1a78:	30448493          	addi	s1,s1,772
    1a7c:	8b5e                	mv	s6,s7
    1a7e:	00006cb7          	lui	s9,0x6
    1a82:	02e90733          	mul	a4,s2,a4
    1a86:	07ad                	addi	a5,a5,11
    1a88:	97ba                	add	a5,a5,a4
    1a8a:	9a3e                	add	s4,s4,a5
    1a8c:	00c18593          	addi	a1,gp,12 # 2000088c <DevDesc_Buf>
    1a90:	8552                	mv	a0,s4
    1a92:	106010ef          	jal	ra,2b98 <USBFSH_GetDeviceDescr>
    1a96:	85aa                	mv	a1,a0
    1a98:	e955                	bnez	a0,1b4c <USBH_EnumHubPortDevice+0x100>
    1a9a:	00006a37          	lui	s4,0x6
    1a9e:	4401                	li	s0,0
    1aa0:	00c18d13          	addi	s10,gp,12 # 2000088c <DevDesc_Buf>
    1aa4:	4cc9                	li	s9,18
    1aa6:	8bd2                	mv	s7,s4
    1aa8:	008d07b3          	add	a5,s10,s0
    1aac:	238c                	lbu	a1,0(a5)
    1aae:	890a0513          	addi	a0,s4,-1904 # 5890 <_read+0x238>
    1ab2:	0405                	addi	s0,s0,1
    1ab4:	1ad020ef          	jal	ra,4460 <iprintf>
    1ab8:	ff9418e3          	bne	s0,s9,1aa8 <USBH_EnumHubPortDevice+0x5c>
    1abc:	00006a37          	lui	s4,0x6
    1ac0:	850a0513          	addi	a0,s4,-1968 # 5850 <_read+0x1f8>
    1ac4:	2b1020ef          	jal	ra,4574 <puts>
    1ac8:	00006537          	lui	a0,0x6
    1acc:	83050513          	addi	a0,a0,-2000 # 5830 <_read+0x1d8>
    1ad0:	2a5020ef          	jal	ra,4574 <puts>
    1ad4:	4419                	li	s0,6
    1ad6:	47fd                	li	a5,31
    1ad8:	02898433          	mul	s0,s3,s0
    1adc:	4ca9                	li	s9,10
    1ade:	00006d37          	lui	s10,0x6
    1ae2:	02f907b3          	mul	a5,s2,a5
    1ae6:	943e                	add	s0,s0,a5
    1ae8:	9426                	add	s0,s0,s1
    1aea:	244c                	lbu	a1,12(s0)
    1aec:	3428                	lbu	a0,11(s0)
    1aee:	0589                	addi	a1,a1,2
    1af0:	0ff5f593          	andi	a1,a1,255
    1af4:	1b4010ef          	jal	ra,2ca8 <USBFSH_SetUsbAddress>
    1af8:	85aa                	mv	a1,a0
    1afa:	e535                	bnez	a0,1b66 <USBH_EnumHubPortDevice+0x11a>
    1afc:	245c                	lbu	a5,12(s0)
    1afe:	4515                	li	a0,5
    1b00:	4419                	li	s0,6
    1b02:	0789                	addi	a5,a5,2
    1b04:	00fc0023          	sb	a5,0(s8)
    1b08:	790020ef          	jal	ra,4298 <Delay_Ms>
    1b0c:	00006537          	lui	a0,0x6
    1b10:	84050513          	addi	a0,a0,-1984 # 5840 <_read+0x1e8>
    1b14:	261020ef          	jal	ra,4574 <puts>
    1b18:	47fd                	li	a5,31
    1b1a:	02898433          	mul	s0,s3,s0
    1b1e:	4c29                	li	s8,10
    1b20:	8cea                	mv	s9,s10
    1b22:	00006db7          	lui	s11,0x6
    1b26:	02f907b3          	mul	a5,s2,a5
    1b2a:	943e                	add	s0,s0,a5
    1b2c:	9426                	add	s0,s0,s1
    1b2e:	3428                	lbu	a0,11(s0)
    1b30:	c0c18593          	addi	a1,gp,-1012 # 2000048c <Com_Buf>
    1b34:	00e10693          	addi	a3,sp,14
    1b38:	40000613          	li	a2,1024
    1b3c:	09e010ef          	jal	ra,2bda <USBFSH_GetConfigDescr>
    1b40:	85aa                	mv	a1,a0
    1b42:	e171                	bnez	a0,1c06 <USBH_EnumHubPortDevice+0x1ba>
    1b44:	4401                	li	s0,0
    1b46:	c0c18c13          	addi	s8,gp,-1012 # 2000048c <Com_Buf>
    1b4a:	a0a1                	j	1b92 <USBH_EnumHubPortDevice+0x146>
    1b4c:	147d                	addi	s0,s0,-1
    1b4e:	8a8c8513          	addi	a0,s9,-1880 # 58a8 <_read+0x250>
    1b52:	0ff47413          	andi	s0,s0,255
    1b56:	10b020ef          	jal	ra,4460 <iprintf>
    1b5a:	f80d                	bnez	s0,1a8c <USBH_EnumHubPortDevice+0x40>
    1b5c:	04500513          	li	a0,69
    1b60:	0141                	addi	sp,sp,16
    1b62:	e9afe06f          	j	1fc <__riscv_restore_12>
    1b66:	1cfd                	addi	s9,s9,-1
    1b68:	8a8d0513          	addi	a0,s10,-1880 # 58a8 <_read+0x250>
    1b6c:	0ffcfc93          	andi	s9,s9,255
    1b70:	0f1020ef          	jal	ra,4460 <iprintf>
    1b74:	f60c9be3          	bnez	s9,1aea <USBH_EnumHubPortDevice+0x9e>
    1b78:	04600513          	li	a0,70
    1b7c:	b7d5                	j	1b60 <USBH_EnumHubPortDevice+0x114>
    1b7e:	008c07b3          	add	a5,s8,s0
    1b82:	238c                	lbu	a1,0(a5)
    1b84:	0405                	addi	s0,s0,1
    1b86:	890b8513          	addi	a0,s7,-1904
    1b8a:	0442                	slli	s0,s0,0x10
    1b8c:	0d5020ef          	jal	ra,4460 <iprintf>
    1b90:	8041                	srli	s0,s0,0x10
    1b92:	873c                	lhu	a5,14(sp)
    1b94:	fef465e3          	bltu	s0,a5,1b7e <USBH_EnumHubPortDevice+0x132>
    1b98:	850a0513          	addi	a0,s4,-1968
    1b9c:	1d9020ef          	jal	ra,4574 <puts>
    1ba0:	8656                	mv	a2,s5
    1ba2:	c0c18593          	addi	a1,gp,-1012 # 2000048c <Com_Buf>
    1ba6:	00c18513          	addi	a0,gp,12 # 2000088c <DevDesc_Buf>
    1baa:	005c4a03          	lbu	s4,5(s8)
    1bae:	d99fe0ef          	jal	ra,946 <USBH_AnalyseType>
    1bb2:	000ac583          	lbu	a1,0(s5)
    1bb6:	00006537          	lui	a0,0x6
    1bba:	8d450513          	addi	a0,a0,-1836 # 58d4 <_read+0x27c>
    1bbe:	0a3020ef          	jal	ra,4460 <iprintf>
    1bc2:	00006537          	lui	a0,0x6
    1bc6:	85450513          	addi	a0,a0,-1964 # 5854 <_read+0x1fc>
    1bca:	1ab020ef          	jal	ra,4574 <puts>
    1bce:	4799                	li	a5,6
    1bd0:	02f989b3          	mul	s3,s3,a5
    1bd4:	47fd                	li	a5,31
    1bd6:	4429                	li	s0,10
    1bd8:	02f90933          	mul	s2,s2,a5
    1bdc:	99ca                	add	s3,s3,s2
    1bde:	94ce                	add	s1,s1,s3
    1be0:	00006937          	lui	s2,0x6
    1be4:	34a8                	lbu	a0,11(s1)
    1be6:	85d2                	mv	a1,s4
    1be8:	0fa010ef          	jal	ra,2ce2 <USBFSH_SetUsbConfig>
    1bec:	d935                	beqz	a0,1b60 <USBH_EnumHubPortDevice+0x114>
    1bee:	147d                	addi	s0,s0,-1
    1bf0:	85aa                	mv	a1,a0
    1bf2:	0ff47413          	andi	s0,s0,255
    1bf6:	8a890513          	addi	a0,s2,-1880 # 58a8 <_read+0x250>
    1bfa:	067020ef          	jal	ra,4460 <iprintf>
    1bfe:	f07d                	bnez	s0,1be4 <USBH_EnumHubPortDevice+0x198>
    1c00:	04900513          	li	a0,73
    1c04:	bfb1                	j	1b60 <USBH_EnumHubPortDevice+0x114>
    1c06:	1c7d                	addi	s8,s8,-1
    1c08:	8a8d8513          	addi	a0,s11,-1880 # 58a8 <_read+0x250>
    1c0c:	0ffc7c13          	andi	s8,s8,255
    1c10:	051020ef          	jal	ra,4460 <iprintf>
    1c14:	f00c1de3          	bnez	s8,1b2e <USBH_EnumHubPortDevice+0xe2>
    1c18:	b791                	j	1b5c <USBH_EnumHubPortDevice+0x110>

00001c1a <KB_AnalyzeKeyValue>:
    1c1a:	da6fe2ef          	jal	t0,1c0 <__riscv_save_12>
    1c1e:	04200d13          	li	s10,66
    1c22:	03a58d33          	mul	s10,a1,s10
    1c26:	10a00593          	li	a1,266
    1c2a:	200017b7          	lui	a5,0x20001
    1c2e:	8932                	mv	s2,a2
    1c30:	8c36                	mv	s8,a3
    1c32:	4985                	li	s3,1
    1c34:	4b09                	li	s6,2
    1c36:	4b8d                	li	s7,3
    1c38:	02b50533          	mul	a0,a0,a1
    1c3c:	956a                	add	a0,a0,s10
    1c3e:	8a078d13          	addi	s10,a5,-1888 # 200008a0 <HostCtl>
    1c42:	9d2a                	add	s10,s10,a0
    1c44:	03ed4a03          	lbu	s4,62(s10)
    1c48:	041d4483          	lbu	s1,65(s10)
    1c4c:	03fd4a83          	lbu	s5,63(s10)
    1c50:	8dd2                	mv	s11,s4
    1c52:	414d8433          	sub	s0,s11,s4
    1c56:	0ff47413          	andi	s0,s0,255
    1c5a:	041d4c83          	lbu	s9,65(s10)
    1c5e:	01bafa63          	bgeu	s5,s11,1c72 <KB_AnalyzeKeyValue+0x58>
    1c62:	41948433          	sub	s0,s1,s9
    1c66:	00803433          	snez	s0,s0
    1c6a:	048d0123          	sb	s0,66(s10)
    1c6e:	d8efe06f          	j	1fc <__riscv_restore_12>
    1c72:	013d9f63          	bne	s11,s3,1c90 <KB_AnalyzeKeyValue+0x76>
    1c76:	8662                	mv	a2,s8
    1c78:	05300593          	li	a1,83
    1c7c:	854a                	mv	a0,s2
    1c7e:	718020ef          	jal	ra,4396 <memchr>
    1c82:	008d9433          	sll	s0,s11,s0
    1c86:	e105                	bnez	a0,1ca6 <KB_AnalyzeKeyValue+0x8c>
    1c88:	0d85                	addi	s11,s11,1
    1c8a:	0ffdfd93          	andi	s11,s11,255
    1c8e:	b7d1                	j	1c52 <KB_AnalyzeKeyValue+0x38>
    1c90:	036d9063          	bne	s11,s6,1cb0 <KB_AnalyzeKeyValue+0x96>
    1c94:	8662                	mv	a2,s8
    1c96:	03900593          	li	a1,57
    1c9a:	854a                	mv	a0,s2
    1c9c:	6fa020ef          	jal	ra,4396 <memchr>
    1ca0:	d565                	beqz	a0,1c88 <KB_AnalyzeKeyValue+0x6e>
    1ca2:	00899433          	sll	s0,s3,s0
    1ca6:	01944433          	xor	s0,s0,s9
    1caa:	048d00a3          	sb	s0,65(s10)
    1cae:	bfe9                	j	1c88 <KB_AnalyzeKeyValue+0x6e>
    1cb0:	fd7d9ce3          	bne	s11,s7,1c88 <KB_AnalyzeKeyValue+0x6e>
    1cb4:	8662                	mv	a2,s8
    1cb6:	04700593          	li	a1,71
    1cba:	b7c5                	j	1c9a <KB_AnalyzeKeyValue+0x80>

00001cbc <KB_SetReport>:
    1cbc:	d34fe2ef          	jal	t0,1f0 <__riscv_save_0>
    1cc0:	88b2                	mv	a7,a2
    1cc2:	10a00813          	li	a6,266
    1cc6:	8636                	mv	a2,a3
    1cc8:	04200693          	li	a3,66
    1ccc:	03058833          	mul	a6,a1,a6
    1cd0:	200017b7          	lui	a5,0x20001
    1cd4:	8a078713          	addi	a4,a5,-1888 # 200008a0 <HostCtl>
    1cd8:	1141                	addi	sp,sp,-16
    1cda:	8a078793          	addi	a5,a5,-1888
    1cde:	02d606b3          	mul	a3,a2,a3
    1ce2:	96c2                	add	a3,a3,a6
    1ce4:	9736                	add	a4,a4,a3
    1ce6:	03c74803          	lbu	a6,60(a4)
    1cea:	04174683          	lbu	a3,65(a4)
    1cee:	04080263          	beqz	a6,1d32 <KB_SetReport+0x76>
    1cf2:	03d74703          	lbu	a4,61(a4)
    1cf6:	86d4                	sb	a3,13(sp)
    1cf8:	8658                	sb	a4,12(sp)
    1cfa:	4709                	li	a4,2
    1cfc:	8778                	sh	a4,14(sp)
    1cfe:	10a00693          	li	a3,266
    1d02:	04200713          	li	a4,66
    1d06:	02e60733          	mul	a4,a2,a4
    1d0a:	02d586b3          	mul	a3,a1,a3
    1d0e:	9736                	add	a4,a4,a3
    1d10:	97ba                	add	a5,a5,a4
    1d12:	0407c703          	lbu	a4,64(a5)
    1d16:	4785                	li	a5,1
    1d18:	02f71063          	bne	a4,a5,1d38 <KB_SetReport+0x7c>
    1d1c:	00e10713          	addi	a4,sp,14
    1d20:	0074                	addi	a3,sp,12
    1d22:	85c6                	mv	a1,a7
    1d24:	0ce010ef          	jal	ra,2df2 <HID_SetReport>
    1d28:	87aa                	mv	a5,a0
    1d2a:	853e                	mv	a0,a5
    1d2c:	0141                	addi	sp,sp,16
    1d2e:	ce6fe06f          	j	214 <__riscv_restore_0>
    1d32:	8654                	sb	a3,12(sp)
    1d34:	4705                	li	a4,1
    1d36:	b7d9                	j	1cfc <KB_SetReport+0x40>
    1d38:	0ff00693          	li	a3,255
    1d3c:	4781                	li	a5,0
    1d3e:	fed716e3          	bne	a4,a3,1d2a <KB_SetReport+0x6e>
    1d42:	873c                	lhu	a5,14(sp)
    1d44:	0078                	addi	a4,sp,12
    1d46:	4681                	li	a3,0
    1d48:	cc1fe0ef          	jal	ra,a08 <USBH_SendHidData>
    1d4c:	bff1                	j	1d28 <KB_SetReport+0x6c>

00001d4e <USBH_EnumHidDevice>:
    1d4e:	c7afe2ef          	jal	t0,1c8 <__riscv_save_10>
    1d52:	89aa                	mv	s3,a0
    1d54:	00005537          	lui	a0,0x5
    1d58:	76c50513          	addi	a0,a0,1900 # 576c <_read+0x114>
    1d5c:	8aae                	mv	s5,a1
    1d5e:	8a32                	mv	s4,a2
    1d60:	015020ef          	jal	ra,4574 <puts>
    1d64:	00005537          	lui	a0,0x5
    1d68:	78450513          	addi	a0,a0,1924 # 5784 <_read+0x12c>
    1d6c:	6f4020ef          	jal	ra,4460 <iprintf>
    1d70:	85d6                	mv	a1,s5
    1d72:	854e                	mv	a0,s3
    1d74:	f03fe0ef          	jal	ra,c76 <KM_AnalyzeConfigDesc>
    1d78:	8b2a                	mv	s6,a0
    1d7a:	1e051363          	bnez	a0,1f60 <USBH_EnumHidDevice+0x212>
    1d7e:	00006537          	lui	a0,0x6
    1d82:	8c050513          	addi	a0,a0,-1856 # 58c0 <_read+0x268>
    1d86:	7ee020ef          	jal	ra,4574 <puts>
    1d8a:	c0c18793          	addi	a5,gp,-1012 # 2000048c <Com_Buf>
    1d8e:	23fc                	lbu	a5,6(a5)
    1d90:	c0c18413          	addi	s0,gp,-1012 # 2000048c <Com_Buf>
    1d94:	cb95                	beqz	a5,1dc8 <USBH_EnumHidDevice+0x7a>
    1d96:	00005537          	lui	a0,0x5
    1d9a:	79850513          	addi	a0,a0,1944 # 5798 <_read+0x140>
    1d9e:	6c2020ef          	jal	ra,4460 <iprintf>
    1da2:	2070                	lbu	a2,6(s0)
    1da4:	85d2                	mv	a1,s4
    1da6:	854e                	mv	a0,s3
    1da8:	bfdfe0ef          	jal	ra,9a4 <USBH_GetStrDescr>
    1dac:	84aa                	mv	s1,a0
    1dae:	10051663          	bnez	a0,1eba <USBH_EnumHidDevice+0x16c>
    1db2:	00006937          	lui	s2,0x6
    1db6:	201c                	lbu	a5,0(s0)
    1db8:	0ef4e663          	bltu	s1,a5,1ea4 <USBH_EnumHidDevice+0x156>
    1dbc:	00006537          	lui	a0,0x6
    1dc0:	85050513          	addi	a0,a0,-1968 # 5850 <_read+0x1f8>
    1dc4:	7b0020ef          	jal	ra,4574 <puts>
    1dc8:	8652                	mv	a2,s4
    1dca:	85d6                	mv	a1,s5
    1dcc:	854e                	mv	a0,s3
    1dce:	a60ff0ef          	jal	ra,102e <KM_DealHidReportDesc>
    1dd2:	00c18793          	addi	a5,gp,12 # 2000088c <DevDesc_Buf>
    1dd6:	27fc                	lbu	a5,14(a5)
    1dd8:	00c18493          	addi	s1,gp,12 # 2000088c <DevDesc_Buf>
    1ddc:	cb95                	beqz	a5,1e10 <USBH_EnumHidDevice+0xc2>
    1dde:	00005537          	lui	a0,0x5
    1de2:	7ac50513          	addi	a0,a0,1964 # 57ac <_read+0x154>
    1de6:	67a020ef          	jal	ra,4460 <iprintf>
    1dea:	24f0                	lbu	a2,14(s1)
    1dec:	85d2                	mv	a1,s4
    1dee:	854e                	mv	a0,s3
    1df0:	bb5fe0ef          	jal	ra,9a4 <USBH_GetStrDescr>
    1df4:	892a                	mv	s2,a0
    1df6:	0e051563          	bnez	a0,1ee0 <USBH_EnumHidDevice+0x192>
    1dfa:	00006bb7          	lui	s7,0x6
    1dfe:	201c                	lbu	a5,0(s0)
    1e00:	0cf96563          	bltu	s2,a5,1eca <USBH_EnumHidDevice+0x17c>
    1e04:	00006537          	lui	a0,0x6
    1e08:	85050513          	addi	a0,a0,-1968 # 5850 <_read+0x1f8>
    1e0c:	768020ef          	jal	ra,4574 <puts>
    1e10:	34fc                	lbu	a5,15(s1)
    1e12:	cb95                	beqz	a5,1e46 <USBH_EnumHidDevice+0xf8>
    1e14:	00005537          	lui	a0,0x5
    1e18:	7c050513          	addi	a0,a0,1984 # 57c0 <_read+0x168>
    1e1c:	644020ef          	jal	ra,4460 <iprintf>
    1e20:	34f0                	lbu	a2,15(s1)
    1e22:	85d2                	mv	a1,s4
    1e24:	854e                	mv	a0,s3
    1e26:	b7ffe0ef          	jal	ra,9a4 <USBH_GetStrDescr>
    1e2a:	892a                	mv	s2,a0
    1e2c:	0c051d63          	bnez	a0,1f06 <USBH_EnumHidDevice+0x1b8>
    1e30:	00006bb7          	lui	s7,0x6
    1e34:	201c                	lbu	a5,0(s0)
    1e36:	0af96d63          	bltu	s2,a5,1ef0 <USBH_EnumHidDevice+0x1a2>
    1e3a:	00006537          	lui	a0,0x6
    1e3e:	85050513          	addi	a0,a0,-1968 # 5850 <_read+0x1f8>
    1e42:	732020ef          	jal	ra,4574 <puts>
    1e46:	289c                	lbu	a5,16(s1)
    1e48:	cb8d                	beqz	a5,1e7a <USBH_EnumHidDevice+0x12c>
    1e4a:	00005537          	lui	a0,0x5
    1e4e:	7d450513          	addi	a0,a0,2004 # 57d4 <_read+0x17c>
    1e52:	60e020ef          	jal	ra,4460 <iprintf>
    1e56:	2890                	lbu	a2,16(s1)
    1e58:	85d2                	mv	a1,s4
    1e5a:	854e                	mv	a0,s3
    1e5c:	b49fe0ef          	jal	ra,9a4 <USBH_GetStrDescr>
    1e60:	84aa                	mv	s1,a0
    1e62:	e569                	bnez	a0,1f2c <USBH_EnumHidDevice+0x1de>
    1e64:	00006937          	lui	s2,0x6
    1e68:	201c                	lbu	a5,0(s0)
    1e6a:	0af4e663          	bltu	s1,a5,1f16 <USBH_EnumHidDevice+0x1c8>
    1e6e:	00006537          	lui	a0,0x6
    1e72:	85050513          	addi	a0,a0,-1968 # 5850 <_read+0x1f8>
    1e76:	6fe020ef          	jal	ra,4574 <puts>
    1e7a:	10a00493          	li	s1,266
    1e7e:	029a84b3          	mul	s1,s5,s1
    1e82:	20001937          	lui	s2,0x20001
    1e86:	8a090913          	addi	s2,s2,-1888 # 200008a0 <HostCtl>
    1e8a:	4401                	li	s0,0
    1e8c:	04200c13          	li	s8,66
    1e90:	4c85                	li	s9,1
    1e92:	01248bb3          	add	s7,s1,s2
    1e96:	000bc783          	lbu	a5,0(s7) # 6000 <_data_lma+0x3c>
    1e9a:	0af46163          	bltu	s0,a5,1f3c <USBH_EnumHidDevice+0x1ee>
    1e9e:	855a                	mv	a0,s6
    1ea0:	b60fe06f          	j	200 <__riscv_restore_10>
    1ea4:	009407b3          	add	a5,s0,s1
    1ea8:	238c                	lbu	a1,0(a5)
    1eaa:	89090513          	addi	a0,s2,-1904
    1eae:	0485                	addi	s1,s1,1
    1eb0:	5b0020ef          	jal	ra,4460 <iprintf>
    1eb4:	0ff4f493          	andi	s1,s1,255
    1eb8:	bdfd                	j	1db6 <USBH_EnumHidDevice+0x68>
    1eba:	85aa                	mv	a1,a0
    1ebc:	00006537          	lui	a0,0x6
    1ec0:	8a850513          	addi	a0,a0,-1880 # 58a8 <_read+0x250>
    1ec4:	59c020ef          	jal	ra,4460 <iprintf>
    1ec8:	b701                	j	1dc8 <USBH_EnumHidDevice+0x7a>
    1eca:	012407b3          	add	a5,s0,s2
    1ece:	238c                	lbu	a1,0(a5)
    1ed0:	890b8513          	addi	a0,s7,-1904
    1ed4:	0905                	addi	s2,s2,1
    1ed6:	58a020ef          	jal	ra,4460 <iprintf>
    1eda:	0ff97913          	andi	s2,s2,255
    1ede:	b705                	j	1dfe <USBH_EnumHidDevice+0xb0>
    1ee0:	85aa                	mv	a1,a0
    1ee2:	00006537          	lui	a0,0x6
    1ee6:	8a850513          	addi	a0,a0,-1880 # 58a8 <_read+0x250>
    1eea:	576020ef          	jal	ra,4460 <iprintf>
    1eee:	b70d                	j	1e10 <USBH_EnumHidDevice+0xc2>
    1ef0:	012407b3          	add	a5,s0,s2
    1ef4:	238c                	lbu	a1,0(a5)
    1ef6:	890b8513          	addi	a0,s7,-1904
    1efa:	0905                	addi	s2,s2,1
    1efc:	564020ef          	jal	ra,4460 <iprintf>
    1f00:	0ff97913          	andi	s2,s2,255
    1f04:	bf05                	j	1e34 <USBH_EnumHidDevice+0xe6>
    1f06:	85aa                	mv	a1,a0
    1f08:	00006537          	lui	a0,0x6
    1f0c:	8a850513          	addi	a0,a0,-1880 # 58a8 <_read+0x250>
    1f10:	550020ef          	jal	ra,4460 <iprintf>
    1f14:	bf0d                	j	1e46 <USBH_EnumHidDevice+0xf8>
    1f16:	009407b3          	add	a5,s0,s1
    1f1a:	238c                	lbu	a1,0(a5)
    1f1c:	89090513          	addi	a0,s2,-1904
    1f20:	0485                	addi	s1,s1,1
    1f22:	53e020ef          	jal	ra,4460 <iprintf>
    1f26:	0ff4f493          	andi	s1,s1,255
    1f2a:	bf3d                	j	1e68 <USBH_EnumHidDevice+0x11a>
    1f2c:	85aa                	mv	a1,a0
    1f2e:	00006537          	lui	a0,0x6
    1f32:	8a850513          	addi	a0,a0,-1880 # 58a8 <_read+0x250>
    1f36:	52a020ef          	jal	ra,4460 <iprintf>
    1f3a:	b781                	j	1e7a <USBH_EnumHidDevice+0x12c>
    1f3c:	038407b3          	mul	a5,s0,s8
    1f40:	97a6                	add	a5,a5,s1
    1f42:	97ca                	add	a5,a5,s2
    1f44:	23b8                	lbu	a4,2(a5)
    1f46:	01971963          	bne	a4,s9,1f58 <USBH_EnumHidDevice+0x20a>
    1f4a:	040780a3          	sb	zero,65(a5)
    1f4e:	86a2                	mv	a3,s0
    1f50:	8652                	mv	a2,s4
    1f52:	85d6                	mv	a1,s5
    1f54:	854e                	mv	a0,s3
    1f56:	339d                	jal	1cbc <KB_SetReport>
    1f58:	0405                	addi	s0,s0,1
    1f5a:	0ff47413          	andi	s0,s0,255
    1f5e:	bf25                	j	1e96 <USBH_EnumHidDevice+0x148>
    1f60:	85aa                	mv	a1,a0
    1f62:	00006537          	lui	a0,0x6
    1f66:	8a850513          	addi	a0,a0,-1880 # 58a8 <_read+0x250>
    1f6a:	4f6020ef          	jal	ra,4460 <iprintf>
    1f6e:	bf05                	j	1e9e <USBH_EnumHidDevice+0x150>

00001f70 <USBH_MainDeal>:
    1f70:	a50fe2ef          	jal	t0,1c0 <__riscv_save_12>
    1f74:	200017b7          	lui	a5,0x20001
    1f78:	200014b7          	lui	s1,0x20001
    1f7c:	7179                	addi	sp,sp,-48
    1f7e:	8a078793          	addi	a5,a5,-1888 # 200008a0 <HostCtl>
    1f82:	30448913          	addi	s2,s1,772 # 20001304 <RootHubDev>
    1f86:	30448993          	addi	s3,s1,772
    1f8a:	4a01                	li	s4,0
    1f8c:	30448493          	addi	s1,s1,772
    1f90:	c43e                	sw	a5,8(sp)
    1f92:	00006c37          	lui	s8,0x6
    1f96:	00006cb7          	lui	s9,0x6
    1f9a:	00006d37          	lui	s10,0x6
    1f9e:	00006db7          	lui	s11,0x6
    1fa2:	0ffa7a93          	andi	s5,s4,255
    1fa6:	8556                	mv	a0,s5
    1fa8:	8f3fe0ef          	jal	ra,89a <USBH_CheckRootHubPortStatus>
    1fac:	4785                	li	a5,1
    1fae:	842a                	mv	s0,a0
    1fb0:	18f51563          	bne	a0,a5,213a <USBH_MainDeal+0x1ca>
    1fb4:	000067b7          	lui	a5,0x6
    1fb8:	85d2                	mv	a1,s4
    1fba:	8f078513          	addi	a0,a5,-1808 # 58f0 <_read+0x298>
    1fbe:	4a2020ef          	jal	ra,4460 <iprintf>
    1fc2:	4795                	li	a5,5
    1fc4:	02fa87b3          	mul	a5,s5,a5
    1fc8:	00898023          	sb	s0,0(s3)
    1fcc:	8556                	mv	a0,s5
    1fce:	00f982a3          	sb	a5,5(s3)
    1fd2:	a9bfe0ef          	jal	ra,a6c <USBH_EnumRootDevice>
    1fd6:	842a                	mv	s0,a0
    1fd8:	14051a63          	bnez	a0,212c <USBH_MainDeal+0x1bc>
    1fdc:	0019cb83          	lbu	s7,1(s3)
    1fe0:	4b0d                	li	s6,3
    1fe2:	0b6b9463          	bne	s7,s6,208a <USBH_MainDeal+0x11a>
    1fe6:	00006537          	lui	a0,0x6
    1fea:	90850513          	addi	a0,a0,-1784 # 5908 <_read+0x2b0>
    1fee:	472020ef          	jal	ra,4460 <iprintf>
    1ff2:	0049c603          	lbu	a2,4(s3)
    1ff6:	0059c583          	lbu	a1,5(s3)
    1ffa:	8556                	mv	a0,s5
    1ffc:	3b89                	jal	1d4e <USBH_EnumHidDevice>
    1ffe:	842a                	mv	s0,a0
    2000:	00006537          	lui	a0,0x6
    2004:	92050513          	addi	a0,a0,-1760 # 5920 <_read+0x2c8>
    2008:	458020ef          	jal	ra,4460 <iprintf>
    200c:	ec55                	bnez	s0,20c8 <USBH_MainDeal+0x158>
    200e:	00006537          	lui	a0,0x6
    2012:	8c050513          	addi	a0,a0,-1856 # 58c0 <_read+0x268>
    2016:	55e020ef          	jal	ra,4574 <puts>
    201a:	01798023          	sb	s7,0(s3)
    201e:	09fd                	addi	s3,s3,31
    2020:	060a0363          	beqz	s4,2086 <USBH_MainDeal+0x116>
    2024:	4a01                	li	s4,0
    2026:	c0c18c13          	addi	s8,gp,-1012 # 2000048c <Com_Buf>
    202a:	00094703          	lbu	a4,0(s2)
    202e:	4789                	li	a5,2
    2030:	20e7f663          	bgeu	a5,a4,223c <USBH_MainDeal+0x2cc>
    2034:	00194783          	lbu	a5,1(s2)
    2038:	470d                	li	a4,3
    203a:	00594983          	lbu	s3,5(s2)
    203e:	2ae79163          	bne	a5,a4,22e0 <USBH_MainDeal+0x370>
    2042:	4795                	li	a5,5
    2044:	02fa07b3          	mul	a5,s4,a5
    2048:	20001737          	lui	a4,0x20001
    204c:	8a070713          	addi	a4,a4,-1888 # 200008a0 <HostCtl>
    2050:	4a81                	li	s5,0
    2052:	c63e                	sw	a5,12(sp)
    2054:	10a00793          	li	a5,266
    2058:	02f987b3          	mul	a5,s3,a5
    205c:	973e                	add	a4,a4,a5
    205e:	c43a                	sw	a4,8(sp)
    2060:	c83e                	sw	a5,16(sp)
    2062:	8dba                	mv	s11,a4
    2064:	000dc783          	lbu	a5,0(s11) # 6000 <_data_lma+0x3c>
    2068:	1cfafa63          	bgeu	s5,a5,223c <USBH_MainDeal+0x2cc>
    206c:	04200b13          	li	s6,66
    2070:	036a8b33          	mul	s6,s5,s6
    2074:	47c2                	lw	a5,16(sp)
    2076:	4c81                	li	s9,0
    2078:	9b3e                	add	s6,s6,a5
    207a:	200017b7          	lui	a5,0x20001
    207e:	8a078793          	addi	a5,a5,-1888 # 200008a0 <HostCtl>
    2082:	9b3e                	add	s6,s6,a5
    2084:	a259                	j	220a <USBH_MainDeal+0x29a>
    2086:	4a05                	li	s4,1
    2088:	bf29                	j	1fa2 <USBH_MainDeal+0x32>
    208a:	4725                	li	a4,9
    208c:	04eb9a63          	bne	s7,a4,20e0 <USBH_MainDeal+0x170>
    2090:	00006537          	lui	a0,0x6
    2094:	93850513          	addi	a0,a0,-1736 # 5938 <_read+0x2e0>
    2098:	3c8020ef          	jal	ra,4460 <iprintf>
    209c:	0049c583          	lbu	a1,4(s3)
    20a0:	8556                	mv	a0,s5
    20a2:	cd6ff0ef          	jal	ra,1578 <USBH_EnumHubDevice>
    20a6:	842a                	mv	s0,a0
    20a8:	00006537          	lui	a0,0x6
    20ac:	92050513          	addi	a0,a0,-1760 # 5920 <_read+0x2c8>
    20b0:	3b0020ef          	jal	ra,4460 <iprintf>
    20b4:	e811                	bnez	s0,20c8 <USBH_MainDeal+0x158>
    20b6:	00006537          	lui	a0,0x6
    20ba:	8c050513          	addi	a0,a0,-1856 # 58c0 <_read+0x268>
    20be:	4b6020ef          	jal	ra,4574 <puts>
    20c2:	01698023          	sb	s6,0(s3)
    20c6:	bfa1                	j	201e <USBH_MainDeal+0xae>
    20c8:	47d9                	li	a5,22
    20ca:	f4f40ae3          	beq	s0,a5,201e <USBH_MainDeal+0xae>
    20ce:	00006537          	lui	a0,0x6
    20d2:	85a2                	mv	a1,s0
    20d4:	8a850513          	addi	a0,a0,-1880 # 58a8 <_read+0x250>
    20d8:	388020ef          	jal	ra,4460 <iprintf>
    20dc:	4789                	li	a5,2
    20de:	a83d                	j	211c <USBH_MainDeal+0x1ac>
    20e0:	950c8513          	addi	a0,s9,-1712 # 5950 <_read+0x2f8>
    20e4:	37c020ef          	jal	ra,4460 <iprintf>
    20e8:	0019c783          	lbu	a5,1(s3)
    20ec:	4721                	li	a4,8
    20ee:	00e78e63          	beq	a5,a4,210a <USBH_MainDeal+0x19a>
    20f2:	0ff00713          	li	a4,255
    20f6:	02e78663          	beq	a5,a4,2122 <USBH_MainDeal+0x1b2>
    20fa:	471d                	li	a4,7
    20fc:	00e79b63          	bne	a5,a4,2112 <USBH_MainDeal+0x1a2>
    2100:	00006537          	lui	a0,0x6
    2104:	96c50513          	addi	a0,a0,-1684 # 596c <_read+0x314>
    2108:	a019                	j	210e <USBH_MainDeal+0x19e>
    210a:	960d8513          	addi	a0,s11,-1696
    210e:	352020ef          	jal	ra,4460 <iprintf>
    2112:	984d0513          	addi	a0,s10,-1660 # 5984 <_read+0x32c>
    2116:	45e020ef          	jal	ra,4574 <puts>
    211a:	478d                	li	a5,3
    211c:	00f98023          	sb	a5,0(s3)
    2120:	bdfd                	j	201e <USBH_MainDeal+0xae>
    2122:	00006537          	lui	a0,0x6
    2126:	97850513          	addi	a0,a0,-1672 # 5978 <_read+0x320>
    212a:	b7d5                	j	210e <USBH_MainDeal+0x19e>
    212c:	47d9                	li	a5,22
    212e:	eef508e3          	beq	a0,a5,201e <USBH_MainDeal+0xae>
    2132:	85aa                	mv	a1,a0
    2134:	990c0513          	addi	a0,s8,-1648 # 5990 <_read+0x338>
    2138:	b745                	j	20d8 <USBH_MainDeal+0x168>
    213a:	ee0512e3          	bnez	a0,201e <USBH_MainDeal+0xae>
    213e:	000067b7          	lui	a5,0x6
    2142:	85d2                	mv	a1,s4
    2144:	9b078513          	addi	a0,a5,-1616 # 59b0 <_read+0x358>
    2148:	318020ef          	jal	ra,4460 <iprintf>
    214c:	467d                	li	a2,31
    214e:	0059ca83          	lbu	s5,5(s3)
    2152:	4581                	li	a1,0
    2154:	854e                	mv	a0,s3
    2156:	8cafe0ef          	jal	ra,220 <memset>
    215a:	10a00513          	li	a0,266
    215e:	02aa8533          	mul	a0,s5,a0
    2162:	47a2                	lw	a5,8(sp)
    2164:	10a00613          	li	a2,266
    2168:	4581                	li	a1,0
    216a:	953e                	add	a0,a0,a5
    216c:	8b4fe0ef          	jal	ra,220 <memset>
    2170:	b57d                	j	201e <USBH_MainDeal+0xae>
    2172:	4a05                	li	s4,1
    2174:	bd5d                	j	202a <USBH_MainDeal+0xba>
    2176:	019b0d33          	add	s10,s6,s9
    217a:	022d4783          	lbu	a5,34(s10)
    217e:	01ed4703          	lbu	a4,30(s10)
    2182:	08e7e163          	bltu	a5,a4,2204 <USBH_MainDeal+0x294>
    2186:	02e7f7b3          	remu	a5,a5,a4
    218a:	86e6                	mv	a3,s9
    218c:	c0c18713          	addi	a4,gp,-1012 # 2000048c <Com_Buf>
    2190:	8656                	mv	a2,s5
    2192:	85ce                	mv	a1,s3
    2194:	8552                	mv	a0,s4
    2196:	02fd0123          	sb	a5,34(s10)
    219a:	02e10793          	addi	a5,sp,46
    219e:	825fe0ef          	jal	ra,9c2 <USBH_GetHidData>
    21a2:	842a                	mv	s0,a0
    21a4:	e941                	bnez	a0,2234 <USBH_MainDeal+0x2c4>
    21a6:	4d01                	li	s10,0
    21a8:	a831                	j	21c4 <USBH_MainDeal+0x254>
    21aa:	01ac07b3          	add	a5,s8,s10
    21ae:	238c                	lbu	a1,0(a5)
    21b0:	0d05                	addi	s10,s10,1
    21b2:	000067b7          	lui	a5,0x6
    21b6:	89078513          	addi	a0,a5,-1904 # 5890 <_read+0x238>
    21ba:	0d42                	slli	s10,s10,0x10
    21bc:	2a4020ef          	jal	ra,4460 <iprintf>
    21c0:	010d5d13          	srli	s10,s10,0x10
    21c4:	02e15783          	lhu	a5,46(sp)
    21c8:	fefd61e3          	bltu	s10,a5,21aa <USBH_MainDeal+0x23a>
    21cc:	00006537          	lui	a0,0x6
    21d0:	85050513          	addi	a0,a0,-1968 # 5850 <_read+0x1f8>
    21d4:	3a0020ef          	jal	ra,4574 <puts>
    21d8:	002b4783          	lbu	a5,2(s6)
    21dc:	4705                	li	a4,1
    21de:	04e79163          	bne	a5,a4,2220 <USBH_MainDeal+0x2b0>
    21e2:	02e15683          	lhu	a3,46(sp)
    21e6:	8662                	mv	a2,s8
    21e8:	85d6                	mv	a1,s5
    21ea:	854e                	mv	a0,s3
    21ec:	a2fff0ef          	jal	ra,1c1a <KB_AnalyzeKeyValue>
    21f0:	042b4783          	lbu	a5,66(s6)
    21f4:	cb81                	beqz	a5,2204 <USBH_MainDeal+0x294>
    21f6:	00494603          	lbu	a2,4(s2)
    21fa:	86d6                	mv	a3,s5
    21fc:	85ce                	mv	a1,s3
    21fe:	8552                	mv	a0,s4
    2200:	abdff0ef          	jal	ra,1cbc <KB_SetReport>
    2204:	0c85                	addi	s9,s9,1
    2206:	0ffcfc93          	andi	s9,s9,255
    220a:	008b4783          	lbu	a5,8(s6)
    220e:	f6fce4e3          	bltu	s9,a5,2176 <USBH_MainDeal+0x206>
    2212:	47d9                	li	a5,22
    2214:	02f40363          	beq	s0,a5,223a <USBH_MainDeal+0x2ca>
    2218:	0a85                	addi	s5,s5,1
    221a:	0ffafa93          	andi	s5,s5,255
    221e:	b599                	j	2064 <USBH_MainDeal+0xf4>
    2220:	4709                	li	a4,2
    2222:	fee791e3          	bne	a5,a4,2204 <USBH_MainDeal+0x294>
    2226:	02e15603          	lhu	a2,46(sp)
    222a:	85d6                	mv	a1,s5
    222c:	854e                	mv	a0,s3
    222e:	9f2fe0ef          	jal	ra,420 <USBH_MouseBridge_StoreReport.constprop.14>
    2232:	bfc9                	j	2204 <USBH_MainDeal+0x294>
    2234:	47d9                	li	a5,22
    2236:	00f51963          	bne	a0,a5,2248 <USBH_MainDeal+0x2d8>
    223a:	4459                	li	s0,22
    223c:	097d                	addi	s2,s2,31
    223e:	f20a0ae3          	beqz	s4,2172 <USBH_MainDeal+0x202>
    2242:	6145                	addi	sp,sp,48
    2244:	fb9fd06f          	j	1fc <__riscv_restore_12>
    2248:	02e00793          	li	a5,46
    224c:	faf51ce3          	bne	a0,a5,2204 <USBH_MainDeal+0x294>
    2250:	00006537          	lui	a0,0x6
    2254:	9c850513          	addi	a0,a0,-1592 # 59c8 <_read+0x370>
    2258:	31c020ef          	jal	ra,4574 <puts>
    225c:	009d4583          	lbu	a1,9(s10)
    2260:	8552                	mv	a0,s4
    2262:	0805e593          	ori	a1,a1,128
    2266:	feafe0ef          	jal	ra,a50 <USBH_ClearEndpStall>
    226a:	001dc783          	lbu	a5,1(s11)
    226e:	000d0d23          	sb	zero,26(s10)
    2272:	4725                	li	a4,9
    2274:	0785                	addi	a5,a5,1
    2276:	0ff7f793          	andi	a5,a5,255
    227a:	00fd80a3          	sb	a5,1(s11)
    227e:	f8f773e3          	bgeu	a4,a5,2204 <USBH_MainDeal+0x294>
    2282:	467d                	li	a2,31
    2284:	4581                	li	a1,0
    2286:	854a                	mv	a0,s2
    2288:	f99fd0ef          	jal	ra,220 <memset>
    228c:	8552                	mv	a0,s4
    228e:	fdefe0ef          	jal	ra,a6c <USBH_EnumRootDevice>
    2292:	842a                	mv	s0,a0
    2294:	ed1d                	bnez	a0,22d2 <USBH_MainDeal+0x362>
    2296:	009d4583          	lbu	a1,9(s10)
    229a:	8552                	mv	a0,s4
    229c:	0805e593          	ori	a1,a1,128
    22a0:	fb0fe0ef          	jal	ra,a50 <USBH_ClearEndpStall>
    22a4:	4785                	li	a5,1
    22a6:	00f90023          	sb	a5,0(s2)
    22aa:	4522                	lw	a0,8(sp)
    22ac:	47b2                	lw	a5,12(sp)
    22ae:	10a00613          	li	a2,266
    22b2:	4581                	li	a1,0
    22b4:	000d80a3          	sb	zero,1(s11)
    22b8:	00f902a3          	sb	a5,5(s2)
    22bc:	f65fd0ef          	jal	ra,220 <memset>
    22c0:	00494603          	lbu	a2,4(s2)
    22c4:	85ce                	mv	a1,s3
    22c6:	8552                	mv	a0,s4
    22c8:	a87ff0ef          	jal	ra,1d4e <USBH_EnumHidDevice>
    22cc:	842a                	mv	s0,a0
    22ce:	478d                	li	a5,3
    22d0:	c509                	beqz	a0,22da <USBH_MainDeal+0x36a>
    22d2:	47d9                	li	a5,22
    22d4:	f2f408e3          	beq	s0,a5,2204 <USBH_MainDeal+0x294>
    22d8:	4789                	li	a5,2
    22da:	00f90023          	sb	a5,0(s2)
    22de:	b71d                	j	2204 <USBH_MainDeal+0x294>
    22e0:	f40a1ee3          	bnez	s4,223c <USBH_MainDeal+0x2cc>
    22e4:	4725                	li	a4,9
    22e6:	f4e79be3          	bne	a5,a4,223c <USBH_MainDeal+0x2cc>
    22ea:	10a00593          	li	a1,266
    22ee:	02b989b3          	mul	s3,s3,a1
    22f2:	200016b7          	lui	a3,0x20001
    22f6:	8a068a93          	addi	s5,a3,-1888 # 200008a0 <HostCtl>
    22fa:	8a068d13          	addi	s10,a3,-1888
    22fe:	9ace                	add	s5,s5,s3
    2300:	022ac783          	lbu	a5,34(s5)
    2304:	01eac703          	lbu	a4,30(s5)
    2308:	06e7f063          	bgeu	a5,a4,2368 <USBH_MainDeal+0x3f8>
    230c:	4b01                	li	s6,0
    230e:	20fc                	lbu	a5,6(s1)
    2310:	f2fb76e3          	bgeu	s6,a5,223c <USBH_MainDeal+0x2cc>
    2314:	4799                	li	a5,6
    2316:	02fb07b3          	mul	a5,s6,a5
    231a:	468d                	li	a3,3
    231c:	97a6                	add	a5,a5,s1
    231e:	33f8                	lbu	a4,7(a5)
    2320:	34d71d63          	bne	a4,a3,267a <USBH_MainDeal+0x70a>
    2324:	2794                	lbu	a3,8(a5)
    2326:	34e69a63          	bne	a3,a4,267a <USBH_MainDeal+0x70a>
    232a:	00c7cd83          	lbu	s11,12(a5)
    232e:	10a00793          	li	a5,266
    2332:	4981                	li	s3,0
    2334:	02fd87b3          	mul	a5,s11,a5
    2338:	c43e                	sw	a5,8(sp)
    233a:	ca3e                	sw	a5,20(sp)
    233c:	97ea                	add	a5,a5,s10
    233e:	cc3e                	sw	a5,24(sp)
    2340:	47e2                	lw	a5,24(sp)
    2342:	239c                	lbu	a5,0(a5)
    2344:	32f9fb63          	bgeu	s3,a5,267a <USBH_MainDeal+0x70a>
    2348:	04200793          	li	a5,66
    234c:	02f987b3          	mul	a5,s3,a5
    2350:	4752                	lw	a4,20(sp)
    2352:	4a81                	li	s5,0
    2354:	00e78cb3          	add	s9,a5,a4
    2358:	c83e                	sw	a5,16(sp)
    235a:	4799                	li	a5,6
    235c:	02fb07b3          	mul	a5,s6,a5
    2360:	9cea                	add	s9,s9,s10
    2362:	97a6                	add	a5,a5,s1
    2364:	c63e                	sw	a5,12(sp)
    2366:	a4cd                	j	2648 <USBH_MainDeal+0x6d8>
    2368:	02e7f7b3          	remu	a5,a5,a4
    236c:	20a8                	lbu	a0,2(s1)
    236e:	09e9                	addi	s3,s3,26
    2370:	c0c18b13          	addi	s6,gp,-1012 # 2000048c <Com_Buf>
    2374:	02fa8123          	sb	a5,34(s5)
    2378:	29a1                	jal	27d0 <USBFSH_SetSelfAddr>
    237a:	30a8                	lbu	a0,3(s1)
    237c:	21a5                	jal	27e4 <USBFSH_SetSelfSpeed>
    237e:	009ac503          	lbu	a0,9(s5)
    2382:	02e10693          	addi	a3,sp,46
    2386:	c0c18613          	addi	a2,gp,-1012 # 2000048c <Com_Buf>
    238a:	013d05b3          	add	a1,s10,s3
    238e:	1a1000ef          	jal	ra,2d2e <USBFSH_GetEndpData>
    2392:	842a                	mv	s0,a0
    2394:	fd25                	bnez	a0,230c <USBH_MainDeal+0x39c>
    2396:	000b4583          	lbu	a1,0(s6)
    239a:	00006537          	lui	a0,0x6
    239e:	9d450513          	addi	a0,a0,-1580 # 59d4 <_read+0x37c>
    23a2:	02b106a3          	sb	a1,45(sp)
    23a6:	4981                	li	s3,0
    23a8:	0b8020ef          	jal	ra,4460 <iprintf>
    23ac:	00006db7          	lui	s11,0x6
    23b0:	00006cb7          	lui	s9,0x6
    23b4:	20fc                	lbu	a5,6(s1)
    23b6:	f4f9fbe3          	bgeu	s3,a5,230c <USBH_MainDeal+0x39c>
    23ba:	00198b13          	addi	s6,s3,1
    23be:	0ffb7a93          	andi	s5,s6,255
    23c2:	02d10613          	addi	a2,sp,45
    23c6:	85d6                	mv	a1,s5
    23c8:	4501                	li	a0,0
    23ca:	c82ff0ef          	jal	ra,184c <HUB_Port_PreEnum1>
    23ce:	4759                	li	a4,22
    23d0:	842a                	mv	s0,a0
    23d2:	04e51563          	bne	a0,a4,241c <USBH_MainDeal+0x4ac>
    23d6:	4519                	li	a0,6
    23d8:	02a989b3          	mul	s3,s3,a0
    23dc:	4705                	li	a4,1
    23de:	016717b3          	sll	a5,a4,s6
    23e2:	02d14703          	lbu	a4,45(sp)
    23e6:	fff7c793          	not	a5,a5
    23ea:	10a00613          	li	a2,266
    23ee:	8ff9                	and	a5,a5,a4
    23f0:	02f106a3          	sb	a5,45(sp)
    23f4:	4581                	li	a1,0
    23f6:	013487b3          	add	a5,s1,s3
    23fa:	27c8                	lbu	a0,12(a5)
    23fc:	10a00793          	li	a5,266
    2400:	099d                	addi	s3,s3,7
    2402:	02f50533          	mul	a0,a0,a5
    2406:	956a                	add	a0,a0,s10
    2408:	e19fd0ef          	jal	ra,220 <memset>
    240c:	4619                	li	a2,6
    240e:	4581                	li	a1,0
    2410:	01348533          	add	a0,s1,s3
    2414:	e0dfd0ef          	jal	ra,220 <memset>
    2418:	89d6                	mv	s3,s5
    241a:	bf69                	j	23b4 <USBH_MainDeal+0x444>
    241c:	06400513          	li	a0,100
    2420:	679010ef          	jal	ra,4298 <Delay_Ms>
    2424:	02d10613          	addi	a2,sp,45
    2428:	85d6                	mv	a1,s5
    242a:	4501                	li	a0,0
    242c:	ce4ff0ef          	jal	ra,1910 <HUB_Port_PreEnum2>
    2430:	4755                	li	a4,21
    2432:	842a                	mv	s0,a0
    2434:	0ce51063          	bne	a0,a4,24f4 <USBH_MainDeal+0x584>
    2438:	4799                	li	a5,6
    243a:	02f987b3          	mul	a5,s3,a5
    243e:	4705                	li	a4,1
    2440:	97a6                	add	a5,a5,s1
    2442:	b3f8                	sb	a4,7(a5)
    2444:	4721                	li	a4,8
    2446:	b7b8                	sb	a4,11(a5)
    2448:	01578623          	sb	s5,12(a5)
    244c:	4419                	li	s0,6
    244e:	02898433          	mul	s0,s3,s0
    2452:	8662                	mv	a2,s8
    2454:	85d6                	mv	a1,s5
    2456:	4501                	li	a0,0
    2458:	dbcff0ef          	jal	ra,1a14 <HUB_CheckPortSpeed>
    245c:	000067b7          	lui	a5,0x6
    2460:	85aa                	mv	a1,a0
    2462:	9426                	add	s0,s0,s1
    2464:	a428                	sb	a0,10(s0)
    2466:	9e878513          	addi	a0,a5,-1560 # 59e8 <_read+0x390>
    246a:	7f7010ef          	jal	ra,4460 <iprintf>
    246e:	3408                	lbu	a0,9(s0)
    2470:	2685                	jal	27d0 <USBFSH_SetSelfAddr>
    2472:	2428                	lbu	a0,10(s0)
    2474:	2e85                	jal	27e4 <USBFSH_SetSelfSpeed>
    2476:	30bc                	lbu	a5,3(s1)
    2478:	c799                	beqz	a5,2486 <USBH_MainDeal+0x516>
    247a:	50000737          	lui	a4,0x50000
    247e:	331c                	lbu	a5,1(a4)
    2480:	0fb7f793          	andi	a5,a5,251
    2484:	b31c                	sb	a5,1(a4)
    2486:	000067b7          	lui	a5,0x6
    248a:	9f878513          	addi	a0,a5,-1544 # 59f8 <_read+0x3a0>
    248e:	0e6020ef          	jal	ra,4574 <puts>
    2492:	4799                	li	a5,6
    2494:	02f987b3          	mul	a5,s3,a5
    2498:	85ce                	mv	a1,s3
    249a:	4501                	li	a0,0
    249c:	00878693          	addi	a3,a5,8
    24a0:	00978613          	addi	a2,a5,9
    24a4:	96a6                	add	a3,a3,s1
    24a6:	9626                	add	a2,a2,s1
    24a8:	c43e                	sw	a5,8(sp)
    24aa:	da2ff0ef          	jal	ra,1a4c <USBH_EnumHubPortDevice>
    24ae:	842a                	mv	s0,a0
    24b0:	47a2                	lw	a5,8(sp)
    24b2:	e171                	bnez	a0,2576 <USBH_MainDeal+0x606>
    24b4:	00f48b33          	add	s6,s1,a5
    24b8:	008b4703          	lbu	a4,8(s6)
    24bc:	468d                	li	a3,3
    24be:	04d71d63          	bne	a4,a3,2518 <USBH_MainDeal+0x5a8>
    24c2:	85ce                	mv	a1,s3
    24c4:	a08c8513          	addi	a0,s9,-1528 # 5a08 <_read+0x3b0>
    24c8:	c43a                	sw	a4,8(sp)
    24ca:	797010ef          	jal	ra,4460 <iprintf>
    24ce:	00bb4603          	lbu	a2,11(s6)
    24d2:	00cb4583          	lbu	a1,12(s6)
    24d6:	4501                	li	a0,0
    24d8:	877ff0ef          	jal	ra,1d4e <USBH_EnumHidDevice>
    24dc:	842a                	mv	s0,a0
    24de:	4722                	lw	a4,8(sp)
    24e0:	fd05                	bnez	a0,2418 <USBH_MainDeal+0x4a8>
    24e2:	00006537          	lui	a0,0x6
    24e6:	00eb03a3          	sb	a4,7(s6)
    24ea:	a3450513          	addi	a0,a0,-1484 # 5a34 <_read+0x3dc>
    24ee:	086020ef          	jal	ra,4574 <puts>
    24f2:	b71d                	j	2418 <USBH_MainDeal+0x4a8>
    24f4:	02d14683          	lbu	a3,45(sp)
    24f8:	4705                	li	a4,1
    24fa:	016717b3          	sll	a5,a4,s6
    24fe:	fff7c793          	not	a5,a5
    2502:	8ff5                	and	a5,a5,a3
    2504:	02f106a3          	sb	a5,45(sp)
    2508:	4799                	li	a5,6
    250a:	02f987b3          	mul	a5,s3,a5
    250e:	97a6                	add	a5,a5,s1
    2510:	33fc                	lbu	a5,7(a5)
    2512:	f0e793e3          	bne	a5,a4,2418 <USBH_MainDeal+0x4a8>
    2516:	bf1d                	j	244c <USBH_MainDeal+0x4dc>
    2518:	000067b7          	lui	a5,0x6
    251c:	a3c78513          	addi	a0,a5,-1476 # 5a3c <_read+0x3e4>
    2520:	85ce                	mv	a1,s3
    2522:	73f010ef          	jal	ra,4460 <iprintf>
    2526:	008b4783          	lbu	a5,8(s6)
    252a:	4721                	li	a4,8
    252c:	02e78b63          	beq	a5,a4,2562 <USBH_MainDeal+0x5f2>
    2530:	00f76d63          	bltu	a4,a5,254a <USBH_MainDeal+0x5da>
    2534:	471d                	li	a4,7
    2536:	02e78d63          	beq	a5,a4,2570 <USBH_MainDeal+0x600>
    253a:	4519                	li	a0,6
    253c:	02a989b3          	mul	s3,s3,a0
    2540:	478d                	li	a5,3
    2542:	99a6                	add	s3,s3,s1
    2544:	00f983a3          	sb	a5,7(s3)
    2548:	bdc1                	j	2418 <USBH_MainDeal+0x4a8>
    254a:	4725                	li	a4,9
    254c:	02e78263          	beq	a5,a4,2570 <USBH_MainDeal+0x600>
    2550:	0ff00713          	li	a4,255
    2554:	fee793e3          	bne	a5,a4,253a <USBH_MainDeal+0x5ca>
    2558:	000067b7          	lui	a5,0x6
    255c:	a6c78513          	addi	a0,a5,-1428 # 5a6c <_read+0x414>
    2560:	a029                	j	256a <USBH_MainDeal+0x5fa>
    2562:	000067b7          	lui	a5,0x6
    2566:	a5478513          	addi	a0,a5,-1452 # 5a54 <_read+0x3fc>
    256a:	00a020ef          	jal	ra,4574 <puts>
    256e:	b7f1                	j	253a <USBH_MainDeal+0x5ca>
    2570:	a60d8513          	addi	a0,s11,-1440 # 5a60 <_read+0x408>
    2574:	bfdd                	j	256a <USBH_MainDeal+0x5fa>
    2576:	97a6                	add	a5,a5,s1
    2578:	4709                	li	a4,2
    257a:	b3f8                	sb	a4,7(a5)
    257c:	000067b7          	lui	a5,0x6
    2580:	85ce                	mv	a1,s3
    2582:	a7878513          	addi	a0,a5,-1416 # 5a78 <_read+0x420>
    2586:	6db010ef          	jal	ra,4460 <iprintf>
    258a:	b579                	j	2418 <USBH_MainDeal+0x4a8>
    258c:	015c8733          	add	a4,s9,s5
    2590:	02274783          	lbu	a5,34(a4) # 50000022 <_eusrstack+0x2fff8022>
    2594:	2f74                	lbu	a3,30(a4)
    2596:	0ad7e663          	bltu	a5,a3,2642 <USBH_MainDeal+0x6d2>
    259a:	02d7f7b3          	remu	a5,a5,a3
    259e:	02f70123          	sb	a5,34(a4)
    25a2:	47b2                	lw	a5,12(sp)
    25a4:	3788                	lbu	a0,9(a5)
    25a6:	242d                	jal	27d0 <USBFSH_SetSelfAddr>
    25a8:	47b2                	lw	a5,12(sp)
    25aa:	27a8                	lbu	a0,10(a5)
    25ac:	2c25                	jal	27e4 <USBFSH_SetSelfSpeed>
    25ae:	30bc                	lbu	a5,3(s1)
    25b0:	c799                	beqz	a5,25be <USBH_MainDeal+0x64e>
    25b2:	50000737          	lui	a4,0x50000
    25b6:	331c                	lbu	a5,1(a4)
    25b8:	0fb7f793          	andi	a5,a5,251
    25bc:	b31c                	sb	a5,1(a4)
    25be:	47a2                	lw	a5,8(sp)
    25c0:	02e10693          	addi	a3,sp,46
    25c4:	c0c18613          	addi	a2,gp,-1012 # 2000048c <Com_Buf>
    25c8:	01a78593          	addi	a1,a5,26
    25cc:	47c2                	lw	a5,16(sp)
    25ce:	95be                	add	a1,a1,a5
    25d0:	015c87b3          	add	a5,s9,s5
    25d4:	3788                	lbu	a0,9(a5)
    25d6:	95d6                	add	a1,a1,s5
    25d8:	95ea                	add	a1,a1,s10
    25da:	754000ef          	jal	ra,2d2e <USBFSH_GetEndpData>
    25de:	842a                	mv	s0,a0
    25e0:	e949                	bnez	a0,2672 <USBH_MainDeal+0x702>
    25e2:	4781                	li	a5,0
    25e4:	a839                	j	2602 <USBH_MainDeal+0x692>
    25e6:	00fc0733          	add	a4,s8,a5
    25ea:	230c                	lbu	a1,0(a4)
    25ec:	ce3e                	sw	a5,28(sp)
    25ee:	000067b7          	lui	a5,0x6
    25f2:	89078513          	addi	a0,a5,-1904 # 5890 <_read+0x238>
    25f6:	66b010ef          	jal	ra,4460 <iprintf>
    25fa:	47f2                	lw	a5,28(sp)
    25fc:	0785                	addi	a5,a5,1
    25fe:	07c2                	slli	a5,a5,0x10
    2600:	83c1                	srli	a5,a5,0x10
    2602:	02e15703          	lhu	a4,46(sp)
    2606:	fee7e0e3          	bltu	a5,a4,25e6 <USBH_MainDeal+0x676>
    260a:	00006537          	lui	a0,0x6
    260e:	85050513          	addi	a0,a0,-1968 # 5850 <_read+0x1f8>
    2612:	763010ef          	jal	ra,4574 <puts>
    2616:	002cc783          	lbu	a5,2(s9)
    261a:	4705                	li	a4,1
    261c:	04e79163          	bne	a5,a4,265e <USBH_MainDeal+0x6ee>
    2620:	02e15683          	lhu	a3,46(sp)
    2624:	8662                	mv	a2,s8
    2626:	85ce                	mv	a1,s3
    2628:	856e                	mv	a0,s11
    262a:	df0ff0ef          	jal	ra,1c1a <KB_AnalyzeKeyValue>
    262e:	042cc783          	lbu	a5,66(s9)
    2632:	cb81                	beqz	a5,2642 <USBH_MainDeal+0x6d2>
    2634:	47b2                	lw	a5,12(sp)
    2636:	86ce                	mv	a3,s3
    2638:	85ee                	mv	a1,s11
    263a:	37b0                	lbu	a2,11(a5)
    263c:	4501                	li	a0,0
    263e:	e7eff0ef          	jal	ra,1cbc <KB_SetReport>
    2642:	0a85                	addi	s5,s5,1
    2644:	0ffafa93          	andi	s5,s5,255
    2648:	008cc783          	lbu	a5,8(s9)
    264c:	f4fae0e3          	bltu	s5,a5,258c <USBH_MainDeal+0x61c>
    2650:	47d9                	li	a5,22
    2652:	02f40363          	beq	s0,a5,2678 <USBH_MainDeal+0x708>
    2656:	0985                	addi	s3,s3,1
    2658:	0ff9f993          	andi	s3,s3,255
    265c:	b1d5                	j	2340 <USBH_MainDeal+0x3d0>
    265e:	4709                	li	a4,2
    2660:	fee791e3          	bne	a5,a4,2642 <USBH_MainDeal+0x6d2>
    2664:	02e15603          	lhu	a2,46(sp)
    2668:	85ce                	mv	a1,s3
    266a:	856e                	mv	a0,s11
    266c:	db5fd0ef          	jal	ra,420 <USBH_MouseBridge_StoreReport.constprop.14>
    2670:	bfc9                	j	2642 <USBH_MainDeal+0x6d2>
    2672:	47d9                	li	a5,22
    2674:	fcf517e3          	bne	a0,a5,2642 <USBH_MainDeal+0x6d2>
    2678:	4459                	li	s0,22
    267a:	0b05                	addi	s6,s6,1
    267c:	0ffb7b13          	andi	s6,s6,255
    2680:	b179                	j	230e <USBH_MainDeal+0x39e>

00002682 <USBFSH_SaveTransDiag>:
    2682:	88a189a3          	sb	a0,-1901(gp) # 20000113 <USBFSH_LastPid>
    2686:	88b18c23          	sb	a1,-1896(gp) # 20000118 <USBFSH_LastTog>
    268a:	88c18a23          	sb	a2,-1900(gp) # 20000114 <USBFSH_LastRet>
    268e:	500007b7          	lui	a5,0x50000
    2692:	23f8                	lbu	a4,6(a5)
    2694:	0ff77713          	andi	a4,a4,255
    2698:	88e18823          	sb	a4,-1904(gp) # 20000110 <USBFSH_LastIntFg>
    269c:	33f8                	lbu	a4,7(a5)
    269e:	0ff77713          	andi	a4,a4,255
    26a2:	88e188a3          	sb	a4,-1903(gp) # 20000111 <USBFSH_LastIntSt>
    26a6:	33d8                	lbu	a4,5(a5)
    26a8:	0ff77713          	andi	a4,a4,255
    26ac:	88e18923          	sb	a4,-1902(gp) # 20000112 <USBFSH_LastMisSt>
    26b0:	3398                	lbu	a4,1(a5)
    26b2:	0ff77713          	andi	a4,a4,255
    26b6:	88e186a3          	sb	a4,-1907(gp) # 2000010d <USBFSH_LastHostCtrl>
    26ba:	3bfa                	lhu	a4,54(a5)
    26bc:	0742                	slli	a4,a4,0x10
    26be:	8341                	srli	a4,a4,0x10
    26c0:	88e19723          	sh	a4,-1906(gp) # 2000010e <USBFSH_LastHostSetup>
    26c4:	279e                	lhu	a5,8(a5)
    26c6:	07c2                	slli	a5,a5,0x10
    26c8:	83c1                	srli	a5,a5,0x10
    26ca:	88f19b23          	sh	a5,-1898(gp) # 20000116 <USBFSH_LastRxLen>
    26ce:	88d19d23          	sh	a3,-1894(gp) # 2000011a <USBFSH_LastWaitLeft>
    26d2:	8082                	ret

000026d4 <USBFSH_SetSelfSpeed.part.0>:
    26d4:	50000737          	lui	a4,0x50000
    26d8:	231c                	lbu	a5,0(a4)
    26da:	0bf7f793          	andi	a5,a5,191
    26de:	a31c                	sb	a5,0(a4)
    26e0:	331c                	lbu	a5,1(a4)
    26e2:	0fb7f793          	andi	a5,a5,251
    26e6:	b31c                	sb	a5,1(a4)
    26e8:	3b7e                	lhu	a5,54(a4)
    26ea:	07c2                	slli	a5,a5,0x10
    26ec:	83c1                	srli	a5,a5,0x10
    26ee:	bff7f793          	andi	a5,a5,-1025
    26f2:	07c2                	slli	a5,a5,0x10
    26f4:	83c1                	srli	a5,a5,0x10
    26f6:	bb7e                	sh	a5,54(a4)
    26f8:	8082                	ret

000026fa <USBFS_RCC_Init>:
    26fa:	af7fd2ef          	jal	t0,1f0 <__riscv_save_0>
    26fe:	4505                	li	a0,1
    2700:	0b5010ef          	jal	ra,3fb4 <RCC_USBCLK48MConfig>
    2704:	4501                	li	a0,0
    2706:	057010ef          	jal	ra,3f5c <RCC_USBHSPLLCLKConfig>
    270a:	4505                	li	a0,1
    270c:	037010ef          	jal	ra,3f42 <RCC_USBHSConfig>
    2710:	4505                	li	a0,1
    2712:	065010ef          	jal	ra,3f76 <RCC_USBHSPLLCKREFCLKConfig>
    2716:	4505                	li	a0,1
    2718:	079010ef          	jal	ra,3f90 <RCC_USBHSPHYPLLALIVEcmd>
    271c:	6505                	lui	a0,0x1
    271e:	4585                	li	a1,1
    2720:	80050513          	addi	a0,a0,-2048 # 800 <__stack_size>
    2724:	7c4010ef          	jal	ra,3ee8 <RCC_AHBPeriphClockCmd>
    2728:	4585                	li	a1,1
    272a:	6505                	lui	a0,0x1
    272c:	7bc010ef          	jal	ra,3ee8 <RCC_AHBPeriphClockCmd>
    2730:	ae5fd06f          	j	214 <__riscv_restore_0>

00002734 <USBFS_Host_Init>:
    2734:	4785                	li	a5,1
    2736:	04f51963          	bne	a0,a5,2788 <USBFS_Host_Init+0x54>
    273a:	500007b7          	lui	a5,0x50000
    273e:	f8000713          	li	a4,-128
    2742:	a398                	sb	a4,0(a5)
    2744:	2398                	lbu	a4,0(a5)
    2746:	0762                	slli	a4,a4,0x18
    2748:	8761                	srai	a4,a4,0x18
    274a:	fe075de3          	bgez	a4,2744 <USBFS_Host_Init+0x10>
    274e:	000780a3          	sb	zero,1(a5) # 50000001 <_eusrstack+0x2fff8001>
    2752:	000781a3          	sb	zero,3(a5)
    2756:	04800713          	li	a4,72
    275a:	b7d8                	sb	a4,13(a5)
    275c:	20001737          	lui	a4,0x20001
    2760:	34470713          	addi	a4,a4,836 # 20001344 <USBFS_RX_Buf>
    2764:	cf98                	sw	a4,24(a5)
    2766:	20001737          	lui	a4,0x20001
    276a:	38470713          	addi	a4,a4,900 # 20001384 <USBFS_TX_Buf>
    276e:	cfd8                	sw	a4,28(a5)
    2770:	02078da3          	sb	zero,59(a5)
    2774:	02078f23          	sb	zero,62(a5)
    2778:	f8900713          	li	a4,-119
    277c:	a398                	sb	a4,0(a5)
    277e:	577d                	li	a4,-1
    2780:	a3f8                	sb	a4,6(a5)
    2782:	470d                	li	a4,3
    2784:	a3b8                	sb	a4,2(a5)
    2786:	8082                	ret
    2788:	500007b7          	lui	a5,0x50000
    278c:	4719                	li	a4,6
    278e:	a398                	sb	a4,0(a5)
    2790:	8082                	ret

00002792 <USBFSH_CheckRootHubPortStatus>:
    2792:	50000737          	lui	a4,0x50000
    2796:	237c                	lbu	a5,6(a4)
    2798:	8b85                	andi	a5,a5,1
    279a:	c385                	beqz	a5,27ba <USBFSH_CheckRootHubPortStatus+0x28>
    279c:	4785                	li	a5,1
    279e:	a37c                	sb	a5,6(a4)
    27a0:	3354                	lbu	a3,5(a4)
    27a2:	4781                	li	a5,0
    27a4:	8a85                	andi	a3,a3,1
    27a6:	ca99                	beqz	a3,27bc <USBFSH_CheckRootHubPortStatus+0x2a>
    27a8:	4785                	li	a5,1
    27aa:	c909                	beqz	a0,27bc <USBFSH_CheckRootHubPortStatus+0x2a>
    27ac:	4789                	li	a5,2
    27ae:	00f50663          	beq	a0,a5,27ba <USBFSH_CheckRootHubPortStatus+0x28>
    27b2:	3318                	lbu	a4,1(a4)
    27b4:	4785                	li	a5,1
    27b6:	8b05                	andi	a4,a4,1
    27b8:	c311                	beqz	a4,27bc <USBFSH_CheckRootHubPortStatus+0x2a>
    27ba:	4789                	li	a5,2
    27bc:	853e                	mv	a0,a5
    27be:	8082                	ret

000027c0 <USBFSH_CheckRootHubPortSpeed>:
    27c0:	500007b7          	lui	a5,0x50000
    27c4:	33c8                	lbu	a0,5(a5)
    27c6:	8105                	srli	a0,a0,0x1
    27c8:	00154513          	xori	a0,a0,1
    27cc:	8905                	andi	a0,a0,1
    27ce:	8082                	ret

000027d0 <USBFSH_SetSelfAddr>:
    27d0:	50000737          	lui	a4,0x50000
    27d4:	333c                	lbu	a5,3(a4)
    27d6:	07f57513          	andi	a0,a0,127
    27da:	0807f793          	andi	a5,a5,128
    27de:	8fc9                	or	a5,a5,a0
    27e0:	b33c                	sb	a5,3(a4)
    27e2:	8082                	ret

000027e4 <USBFSH_SetSelfSpeed>:
    27e4:	4785                	li	a5,1
    27e6:	00f51763          	bne	a0,a5,27f4 <USBFSH_SetSelfSpeed+0x10>
    27ea:	a07fd2ef          	jal	t0,1f0 <__riscv_save_0>
    27ee:	35dd                	jal	26d4 <USBFSH_SetSelfSpeed.part.0>
    27f0:	a25fd06f          	j	214 <__riscv_restore_0>
    27f4:	50000737          	lui	a4,0x50000
    27f8:	231c                	lbu	a5,0(a4)
    27fa:	0407e793          	ori	a5,a5,64
    27fe:	a31c                	sb	a5,0(a4)
    2800:	331c                	lbu	a5,1(a4)
    2802:	0047e793          	ori	a5,a5,4
    2806:	b31c                	sb	a5,1(a4)
    2808:	3b7e                	lhu	a5,54(a4)
    280a:	07c2                	slli	a5,a5,0x10
    280c:	83c1                	srli	a5,a5,0x10
    280e:	bff7f793          	andi	a5,a5,-1025
    2812:	07c2                	slli	a5,a5,0x10
    2814:	83c1                	srli	a5,a5,0x10
    2816:	bb7e                	sh	a5,54(a4)
    2818:	8082                	ret

0000281a <USBFSH_ResetRootHubPort>:
    281a:	9d7fd2ef          	jal	t0,1f0 <__riscv_save_0>
    281e:	842a                	mv	s0,a0
    2820:	4501                	li	a0,0
    2822:	377d                	jal	27d0 <USBFSH_SetSelfAddr>
    2824:	3d45                	jal	26d4 <USBFSH_SetSelfSpeed.part.0>
    2826:	4785                	li	a5,1
    2828:	0087ec63          	bltu	a5,s0,2840 <USBFSH_ResetRootHubPort+0x26>
    282c:	50000737          	lui	a4,0x50000
    2830:	331c                	lbu	a5,1(a4)
    2832:	0027e793          	ori	a5,a5,2
    2836:	b31c                	sb	a5,1(a4)
    2838:	e811                	bnez	s0,284c <USBFSH_ResetRootHubPort+0x32>
    283a:	452d                	li	a0,11
    283c:	25d010ef          	jal	ra,4298 <Delay_Ms>
    2840:	50000737          	lui	a4,0x50000
    2844:	331c                	lbu	a5,1(a4)
    2846:	0fd7f793          	andi	a5,a5,253
    284a:	b31c                	sb	a5,1(a4)
    284c:	4509                	li	a0,2
    284e:	24b010ef          	jal	ra,4298 <Delay_Ms>
    2852:	500007b7          	lui	a5,0x50000
    2856:	23f8                	lbu	a4,6(a5)
    2858:	8b05                	andi	a4,a4,1
    285a:	c711                	beqz	a4,2866 <USBFSH_ResetRootHubPort+0x4c>
    285c:	33d8                	lbu	a4,5(a5)
    285e:	8b05                	andi	a4,a4,1
    2860:	c319                	beqz	a4,2866 <USBFSH_ResetRootHubPort+0x4c>
    2862:	4705                	li	a4,1
    2864:	a3f8                	sb	a4,6(a5)
    2866:	9affd06f          	j	214 <__riscv_restore_0>

0000286a <USBFSH_EnableRootHubPort>:
    286a:	50000737          	lui	a4,0x50000
    286e:	335c                	lbu	a5,5(a4)
    2870:	8b85                	andi	a5,a5,1
    2872:	cb85                	beqz	a5,28a2 <USBFSH_EnableRootHubPort+0x38>
    2874:	97dfd2ef          	jal	t0,1f0 <__riscv_save_0>
    2878:	331c                	lbu	a5,1(a4)
    287a:	8b85                	andi	a5,a5,1
    287c:	e791                	bnez	a5,2888 <USBFSH_EnableRootHubPort+0x1e>
    287e:	842a                	mv	s0,a0
    2880:	3781                	jal	27c0 <USBFSH_CheckRootHubPortSpeed>
    2882:	a008                	sb	a0,0(s0)
    2884:	e111                	bnez	a0,2888 <USBFSH_EnableRootHubPort+0x1e>
    2886:	3fb9                	jal	27e4 <USBFSH_SetSelfSpeed>
    2888:	500007b7          	lui	a5,0x50000
    288c:	3398                	lbu	a4,1(a5)
    288e:	4501                	li	a0,0
    2890:	00176713          	ori	a4,a4,1
    2894:	b398                	sb	a4,1(a5)
    2896:	3bfa                	lhu	a4,54(a5)
    2898:	00476713          	ori	a4,a4,4
    289c:	bbfa                	sh	a4,54(a5)
    289e:	977fd06f          	j	214 <__riscv_restore_0>
    28a2:	4559                	li	a0,22
    28a4:	8082                	ret

000028a6 <USBFSH_Transact>:
    28a6:	91bfd2ef          	jal	t0,1c0 <__riscv_save_12>
    28aa:	500007b7          	lui	a5,0x50000
    28ae:	02b78da3          	sb	a1,59(a5) # 5000003b <_eusrstack+0x2fff803b>
    28b2:	1141                	addi	sp,sp,-16
    28b4:	84aa                	mv	s1,a0
    28b6:	8d32                	mv	s10,a2
    28b8:	02b78f23          	sb	a1,62(a5)
    28bc:	00455993          	srli	s3,a0,0x4
    28c0:	4d81                	li	s11,0
    28c2:	50000937          	lui	s2,0x50000
    28c6:	4a89                	li	s5,2
    28c8:	4b39                	li	s6,14
    28ca:	4a29                	li	s4,10
    28cc:	4ba5                	li	s7,9
    28ce:	4c0d                	li	s8,3
    28d0:	4cb5                	li	s9,13
    28d2:	02990c23          	sb	s1,56(s2) # 50000038 <_eusrstack+0x2fff8038>
    28d6:	01590323          	sb	s5,6(s2)
    28da:	3e800693          	li	a3,1000
    28de:	00694783          	lbu	a5,6(s2)
    28e2:	8b89                	andi	a5,a5,2
    28e4:	ef81                	bnez	a5,28fc <USBFSH_Transact+0x56>
    28e6:	4505                	li	a0,1
    28e8:	c62e                	sw	a1,12(sp)
    28ea:	c436                	sw	a3,8(sp)
    28ec:	177010ef          	jal	ra,4262 <Delay_Us>
    28f0:	46a2                	lw	a3,8(sp)
    28f2:	45b2                	lw	a1,12(sp)
    28f4:	16fd                	addi	a3,a3,-1
    28f6:	06c2                	slli	a3,a3,0x10
    28f8:	82c1                	srli	a3,a3,0x10
    28fa:	f2f5                	bnez	a3,28de <USBFSH_Transact+0x38>
    28fc:	02090c23          	sb	zero,56(s2)
    2900:	00694783          	lbu	a5,6(s2)
    2904:	8b89                	andi	a5,a5,2
    2906:	eb89                	bnez	a5,2918 <USBFSH_Transact+0x72>
    2908:	0fe00613          	li	a2,254
    290c:	8526                	mv	a0,s1
    290e:	d75ff0ef          	jal	ra,2682 <USBFSH_SaveTransDiag>
    2912:	0fe00413          	li	s0,254
    2916:	a819                	j	292c <USBFSH_Transact+0x86>
    2918:	00794783          	lbu	a5,7(s2)
    291c:	0407f793          	andi	a5,a5,64
    2920:	cb91                	beqz	a5,2934 <USBFSH_Transact+0x8e>
    2922:	4601                	li	a2,0
    2924:	8526                	mv	a0,s1
    2926:	d5dff0ef          	jal	ra,2682 <USBFSH_SaveTransDiag>
    292a:	4401                	li	s0,0
    292c:	8522                	mv	a0,s0
    292e:	0141                	addi	sp,sp,16
    2930:	8cdfd06f          	j	1fc <__riscv_restore_12>
    2934:	00794783          	lbu	a5,7(s2)
    2938:	0ff7f793          	andi	a5,a5,255
    293c:	00f7f413          	andi	s0,a5,15
    2940:	01641a63          	bne	s0,s6,2954 <USBFSH_Transact+0xae>
    2944:	02e00613          	li	a2,46
    2948:	8526                	mv	a0,s1
    294a:	d39ff0ef          	jal	ra,2682 <USBFSH_SaveTransDiag>
    294e:	02e00413          	li	s0,46
    2952:	bfe9                	j	292c <USBFSH_Transact+0x86>
    2954:	05441d63          	bne	s0,s4,29ae <USBFSH_Transact+0x108>
    2958:	000d1a63          	bnez	s10,296c <USBFSH_Transact+0xc6>
    295c:	02a00613          	li	a2,42
    2960:	8526                	mv	a0,s1
    2962:	d21ff0ef          	jal	ra,2682 <USBFSH_SaveTransDiag>
    2966:	02a00413          	li	s0,42
    296a:	b7c9                	j	292c <USBFSH_Transact+0x86>
    296c:	57fd                	li	a5,-1
    296e:	00fd0363          	beq	s10,a5,2974 <USBFSH_Transact+0xce>
    2972:	1d7d                	addi	s10,s10,-1
    2974:	1dfd                	addi	s11,s11,-1
    2976:	0ffdfd93          	andi	s11,s11,255
    297a:	4551                	li	a0,20
    297c:	c62e                	sw	a1,12(sp)
    297e:	c436                	sw	a3,8(sp)
    2980:	0e3010ef          	jal	ra,4262 <Delay_Us>
    2984:	00694783          	lbu	a5,6(s2)
    2988:	45b2                	lw	a1,12(sp)
    298a:	8b85                	andi	a5,a5,1
    298c:	c7b9                	beqz	a5,29da <USBFSH_Transact+0x134>
    298e:	0c800513          	li	a0,200
    2992:	0d1010ef          	jal	ra,4262 <Delay_Us>
    2996:	00194783          	lbu	a5,1(s2)
    299a:	46a2                	lw	a3,8(sp)
    299c:	45b2                	lw	a1,12(sp)
    299e:	8b85                	andi	a5,a5,1
    29a0:	eb95                	bnez	a5,29d4 <USBFSH_Transact+0x12e>
    29a2:	4655                	li	a2,21
    29a4:	8526                	mv	a0,s1
    29a6:	cddff0ef          	jal	ra,2682 <USBFSH_SaveTransDiag>
    29aa:	4455                	li	s0,21
    29ac:	b741                	j	292c <USBFSH_Transact+0x86>
    29ae:	01798f63          	beq	s3,s7,29cc <USBFSH_Transact+0x126>
    29b2:	01998563          	beq	s3,s9,29bc <USBFSH_Transact+0x116>
    29b6:	4785                	li	a5,1
    29b8:	f4f998e3          	bne	s3,a5,2908 <USBFSH_Transact+0x62>
    29bc:	dc5d                	beqz	s0,297a <USBFSH_Transact+0xd4>
    29be:	02046413          	ori	s0,s0,32
    29c2:	8622                	mv	a2,s0
    29c4:	8526                	mv	a0,s1
    29c6:	cbdff0ef          	jal	ra,2682 <USBFSH_SaveTransDiag>
    29ca:	b78d                	j	292c <USBFSH_Transact+0x86>
    29cc:	8b9d                	andi	a5,a5,7
    29ce:	ff8797e3          	bne	a5,s8,29bc <USBFSH_Transact+0x116>
    29d2:	b765                	j	297a <USBFSH_Transact+0xd4>
    29d4:	4785                	li	a5,1
    29d6:	00f90323          	sb	a5,6(s2)
    29da:	0d85                	addi	s11,s11,1
    29dc:	0ffdfd93          	andi	s11,s11,255
    29e0:	ef4d99e3          	bne	s11,s4,28d2 <USBFSH_Transact+0x2c>
    29e4:	4681                	li	a3,0
    29e6:	02000613          	li	a2,32
    29ea:	8526                	mv	a0,s1
    29ec:	c97ff0ef          	jal	ra,2682 <USBFSH_SaveTransDiag>
    29f0:	02000413          	li	s0,32
    29f4:	bf25                	j	292c <USBFSH_Transact+0x86>

000029f6 <USBFSH_CtrlTransfer>:
    29f6:	fd2fd2ef          	jal	t0,1c8 <__riscv_save_10>
    29fa:	89aa                	mv	s3,a0
    29fc:	84b2                	mv	s1,a2
    29fe:	06400513          	li	a0,100
    2a02:	892e                	mv	s2,a1
    2a04:	05f010ef          	jal	ra,4262 <Delay_Us>
    2a08:	c099                	beqz	s1,2a0e <USBFSH_CtrlTransfer+0x18>
    2a0a:	00049023          	sh	zero,0(s1)
    2a0e:	50000437          	lui	s0,0x50000
    2a12:	47a1                	li	a5,8
    2a14:	6a89                	lui	s5,0x2
    2a16:	bc5e                	sh	a5,60(s0)
    2a18:	710a8613          	addi	a2,s5,1808 # 2710 <USBFS_RCC_Init+0x16>
    2a1c:	4581                	li	a1,0
    2a1e:	0d000513          	li	a0,208
    2a22:	3551                	jal	28a6 <USBFSH_Transact>
    2a24:	14051663          	bnez	a0,2b70 <USBFSH_CtrlTransfer+0x17a>
    2a28:	4791                	li	a5,4
    2a2a:	02f40da3          	sb	a5,59(s0) # 5000003b <_eusrstack+0x2fff803b>
    2a2e:	20001b37          	lui	s6,0x20001
    2a32:	02f40f23          	sb	a5,62(s0)
    2a36:	384b0793          	addi	a5,s6,900 # 20001384 <USBFS_TX_Buf>
    2a3a:	23e2                	lhu	s0,6(a5)
    2a3c:	384b0b13          	addi	s6,s6,900
    2a40:	0e040963          	beqz	s0,2b32 <USBFSH_CtrlTransfer+0x13c>
    2a44:	0e090763          	beqz	s2,2b32 <USBFSH_CtrlTransfer+0x13c>
    2a48:	00078783          	lb	a5,0(a5)
    2a4c:	0607c263          	bltz	a5,2ab0 <USBFSH_CtrlTransfer+0xba>
    2a50:	8bce                	mv	s7,s3
    2a52:	09c2                	slli	s3,s3,0x10
    2a54:	0109d993          	srli	s3,s3,0x10
    2a58:	50000a37          	lui	s4,0x50000
    2a5c:	710a8a93          	addi	s5,s5,1808
    2a60:	06400513          	li	a0,100
    2a64:	7fe010ef          	jal	ra,4262 <Delay_Us>
    2a68:	87de                	mv	a5,s7
    2a6a:	01347363          	bgeu	s0,s3,2a70 <USBFSH_CtrlTransfer+0x7a>
    2a6e:	87a2                	mv	a5,s0
    2a70:	02fa1e23          	sh	a5,60(s4) # 5000003c <_eusrstack+0x2fff803c>
    2a74:	4781                	li	a5,0
    2a76:	03ca5703          	lhu	a4,60(s4)
    2a7a:	10e79563          	bne	a5,a4,2b84 <USBFSH_CtrlTransfer+0x18e>
    2a7e:	03ea4583          	lbu	a1,62(s4)
    2a82:	8656                	mv	a2,s5
    2a84:	4541                	li	a0,16
    2a86:	3505                	jal	28a6 <USBFSH_Transact>
    2a88:	e565                	bnez	a0,2b70 <USBFSH_CtrlTransfer+0x17a>
    2a8a:	03ea4783          	lbu	a5,62(s4)
    2a8e:	0047c793          	xori	a5,a5,4
    2a92:	02fa0f23          	sb	a5,62(s4)
    2a96:	03ca5783          	lhu	a5,60(s4)
    2a9a:	8c1d                	sub	s0,s0,a5
    2a9c:	0442                	slli	s0,s0,0x10
    2a9e:	8041                	srli	s0,s0,0x10
    2aa0:	c491                	beqz	s1,2aac <USBFSH_CtrlTransfer+0xb6>
    2aa2:	03ca5783          	lhu	a5,60(s4)
    2aa6:	209a                	lhu	a4,0(s1)
    2aa8:	97ba                	add	a5,a5,a4
    2aaa:	a09e                	sh	a5,0(s1)
    2aac:	f855                	bnez	s0,2a60 <USBFSH_CtrlTransfer+0x6a>
    2aae:	a051                	j	2b32 <USBFSH_CtrlTransfer+0x13c>
    2ab0:	20001b37          	lui	s6,0x20001
    2ab4:	50000a37          	lui	s4,0x50000
    2ab8:	710a8a93          	addi	s5,s5,1808
    2abc:	344b0b13          	addi	s6,s6,836 # 20001344 <USBFS_RX_Buf>
    2ac0:	19fd                	addi	s3,s3,-1
    2ac2:	06400513          	li	a0,100
    2ac6:	79c010ef          	jal	ra,4262 <Delay_Us>
    2aca:	03ba4583          	lbu	a1,59(s4) # 5000003b <_eusrstack+0x2fff803b>
    2ace:	8656                	mv	a2,s5
    2ad0:	09000513          	li	a0,144
    2ad4:	dd3ff0ef          	jal	ra,28a6 <USBFSH_Transact>
    2ad8:	ed41                	bnez	a0,2b70 <USBFSH_CtrlTransfer+0x17a>
    2ada:	03ba4783          	lbu	a5,59(s4)
    2ade:	0047c793          	xori	a5,a5,4
    2ae2:	02fa0da3          	sb	a5,59(s4)
    2ae6:	008a5703          	lhu	a4,8(s4)
    2aea:	87a2                	mv	a5,s0
    2aec:	00877663          	bgeu	a4,s0,2af8 <USBFSH_CtrlTransfer+0x102>
    2af0:	008a5783          	lhu	a5,8(s4)
    2af4:	07c2                	slli	a5,a5,0x10
    2af6:	83c1                	srli	a5,a5,0x10
    2af8:	8c1d                	sub	s0,s0,a5
    2afa:	0442                	slli	s0,s0,0x10
    2afc:	8041                	srli	s0,s0,0x10
    2afe:	c481                	beqz	s1,2b06 <USBFSH_CtrlTransfer+0x110>
    2b00:	209a                	lhu	a4,0(s1)
    2b02:	973e                	add	a4,a4,a5
    2b04:	a09a                	sh	a4,0(s1)
    2b06:	4701                	li	a4,0
    2b08:	01071693          	slli	a3,a4,0x10
    2b0c:	82c1                	srli	a3,a3,0x10
    2b0e:	06d79363          	bne	a5,a3,2b74 <USBFSH_CtrlTransfer+0x17e>
    2b12:	993e                	add	s2,s2,a5
    2b14:	008a5783          	lhu	a5,8(s4)
    2b18:	07c2                	slli	a5,a5,0x10
    2b1a:	83c1                	srli	a5,a5,0x10
    2b1c:	c799                	beqz	a5,2b2a <USBFSH_CtrlTransfer+0x134>
    2b1e:	008a5783          	lhu	a5,8(s4)
    2b22:	00f9f7b3          	and	a5,s3,a5
    2b26:	e391                	bnez	a5,2b2a <USBFSH_CtrlTransfer+0x134>
    2b28:	fc49                	bnez	s0,2ac2 <USBFSH_CtrlTransfer+0xcc>
    2b2a:	500007b7          	lui	a5,0x50000
    2b2e:	02079e23          	sh	zero,60(a5) # 5000003c <_eusrstack+0x2fff803c>
    2b32:	06400513          	li	a0,100
    2b36:	72c010ef          	jal	ra,4262 <Delay_Us>
    2b3a:	500007b7          	lui	a5,0x50000
    2b3e:	3fde                	lhu	a5,60(a5)
    2b40:	09000513          	li	a0,144
    2b44:	07c2                	slli	a5,a5,0x10
    2b46:	83c1                	srli	a5,a5,0x10
    2b48:	e391                	bnez	a5,2b4c <USBFSH_CtrlTransfer+0x156>
    2b4a:	4541                	li	a0,16
    2b4c:	6609                	lui	a2,0x2
    2b4e:	71060613          	addi	a2,a2,1808 # 2710 <USBFS_RCC_Init+0x16>
    2b52:	4591                	li	a1,4
    2b54:	d53ff0ef          	jal	ra,28a6 <USBFSH_Transact>
    2b58:	ed01                	bnez	a0,2b70 <USBFSH_CtrlTransfer+0x17a>
    2b5a:	50000737          	lui	a4,0x50000
    2b5e:	3f5e                	lhu	a5,60(a4)
    2b60:	07c2                	slli	a5,a5,0x10
    2b62:	83c1                	srli	a5,a5,0x10
    2b64:	c791                	beqz	a5,2b70 <USBFSH_CtrlTransfer+0x17a>
    2b66:	271e                	lhu	a5,8(a4)
    2b68:	07c2                	slli	a5,a5,0x10
    2b6a:	83c1                	srli	a5,a5,0x10
    2b6c:	c391                	beqz	a5,2b70 <USBFSH_CtrlTransfer+0x17a>
    2b6e:	455d                	li	a0,23
    2b70:	e90fd06f          	j	200 <__riscv_restore_10>
    2b74:	00eb06b3          	add	a3,s6,a4
    2b78:	2290                	lbu	a2,0(a3)
    2b7a:	00e906b3          	add	a3,s2,a4
    2b7e:	0705                	addi	a4,a4,1
    2b80:	a290                	sb	a2,0(a3)
    2b82:	b759                	j	2b08 <USBFSH_CtrlTransfer+0x112>
    2b84:	00094683          	lbu	a3,0(s2)
    2b88:	00fb0733          	add	a4,s6,a5
    2b8c:	0785                	addi	a5,a5,1
    2b8e:	07c2                	slli	a5,a5,0x10
    2b90:	a314                	sb	a3,0(a4)
    2b92:	0905                	addi	s2,s2,1
    2b94:	83c1                	srli	a5,a5,0x10
    2b96:	b5c5                	j	2a76 <USBFSH_CtrlTransfer+0x80>

00002b98 <USBFSH_GetDeviceDescr>:
    2b98:	e58fd2ef          	jal	t0,1f0 <__riscv_save_0>
    2b9c:	82018413          	addi	s0,gp,-2016 # 200000a0 <SetupGetDevDesc>
    2ba0:	47a1                	li	a5,8
    2ba2:	4018                	lw	a4,0(s0)
    2ba4:	a11c                	sb	a5,0(a0)
    2ba6:	200017b7          	lui	a5,0x20001
    2baa:	38478793          	addi	a5,a5,900 # 20001384 <USBFS_TX_Buf>
    2bae:	c398                	sw	a4,0(a5)
    2bb0:	4058                	lw	a4,4(s0)
    2bb2:	84aa                	mv	s1,a0
    2bb4:	1141                	addi	sp,sp,-16
    2bb6:	c3d8                	sw	a4,4(a5)
    2bb8:	2108                	lbu	a0,0(a0)
    2bba:	00e10613          	addi	a2,sp,14
    2bbe:	892e                	mv	s2,a1
    2bc0:	3d1d                	jal	29f6 <USBFSH_CtrlTransfer>
    2bc2:	e909                	bnez	a0,2bd4 <USBFSH_GetDeviceDescr+0x3c>
    2bc4:	00794783          	lbu	a5,7(s2)
    2bc8:	207a                	lhu	a4,6(s0)
    2bca:	a09c                	sb	a5,0(s1)
    2bcc:	873c                	lhu	a5,14(sp)
    2bce:	00e7f363          	bgeu	a5,a4,2bd4 <USBFSH_GetDeviceDescr+0x3c>
    2bd2:	455d                	li	a0,23
    2bd4:	0141                	addi	sp,sp,16
    2bd6:	e3efd06f          	j	214 <__riscv_restore_0>

00002bda <USBFSH_GetConfigDescr>:
    2bda:	dfcfd2ef          	jal	t0,1d6 <__riscv_save_4>
    2bde:	81818713          	addi	a4,gp,-2024 # 20000098 <SetupGetCfgDesc>
    2be2:	89b2                	mv	s3,a2
    2be4:	4310                	lw	a2,0(a4)
    2be6:	4358                	lw	a4,4(a4)
    2be8:	20001437          	lui	s0,0x20001
    2bec:	38440793          	addi	a5,s0,900 # 20001384 <USBFS_TX_Buf>
    2bf0:	1141                	addi	sp,sp,-16
    2bf2:	c390                	sw	a2,0(a5)
    2bf4:	c3d8                	sw	a4,4(a5)
    2bf6:	8636                	mv	a2,a3
    2bf8:	8a2a                	mv	s4,a0
    2bfa:	892e                	mv	s2,a1
    2bfc:	c636                	sw	a3,12(sp)
    2bfe:	df9ff0ef          	jal	ra,29f6 <USBFSH_CtrlTransfer>
    2c02:	e129                	bnez	a0,2c44 <USBFSH_GetConfigDescr+0x6a>
    2c04:	46b2                	lw	a3,12(sp)
    2c06:	81818713          	addi	a4,gp,-2024 # 20000098 <SetupGetCfgDesc>
    2c0a:	2372                	lhu	a2,6(a4)
    2c0c:	228e                	lhu	a1,0(a3)
    2c0e:	455d                	li	a0,23
    2c10:	02c5ea63          	bltu	a1,a2,2c44 <USBFSH_GetConfigDescr+0x6a>
    2c14:	00394603          	lbu	a2,3(s2)
    2c18:	00294583          	lbu	a1,2(s2)
    2c1c:	38440793          	addi	a5,s0,900
    2c20:	0622                	slli	a2,a2,0x8
    2c22:	8e4d                	or	a2,a2,a1
    2c24:	85b2                	mv	a1,a2
    2c26:	00c9f363          	bgeu	s3,a2,2c2c <USBFSH_GetConfigDescr+0x52>
    2c2a:	85ce                	mv	a1,s3
    2c2c:	4310                	lw	a2,0(a4)
    2c2e:	4358                	lw	a4,4(a4)
    2c30:	a28e                	sh	a1,0(a3)
    2c32:	c390                	sw	a2,0(a5)
    2c34:	c3d8                	sw	a4,4(a5)
    2c36:	229a                	lhu	a4,0(a3)
    2c38:	8636                	mv	a2,a3
    2c3a:	85ca                	mv	a1,s2
    2c3c:	a3fa                	sh	a4,6(a5)
    2c3e:	8552                	mv	a0,s4
    2c40:	db7ff0ef          	jal	ra,29f6 <USBFSH_CtrlTransfer>
    2c44:	0141                	addi	sp,sp,16
    2c46:	dc4fd06f          	j	20a <__riscv_restore_4>

00002c4a <USBFSH_GetStrDescr>:
    2c4a:	d8cfd2ef          	jal	t0,1d6 <__riscv_save_4>
    2c4e:	82818793          	addi	a5,gp,-2008 # 200000a8 <SetupGetStrDesc>
    2c52:	0007aa03          	lw	s4,0(a5)
    2c56:	20001437          	lui	s0,0x20001
    2c5a:	0047a983          	lw	s3,4(a5)
    2c5e:	38440413          	addi	s0,s0,900 # 20001384 <USBFS_TX_Buf>
    2c62:	1141                	addi	sp,sp,-16
    2c64:	84b2                	mv	s1,a2
    2c66:	3005e913          	ori	s2,a1,768
    2c6a:	01442023          	sw	s4,0(s0)
    2c6e:	00e10613          	addi	a2,sp,14
    2c72:	85a6                	mv	a1,s1
    2c74:	8aaa                	mv	s5,a0
    2c76:	01342223          	sw	s3,4(s0)
    2c7a:	01241123          	sh	s2,2(s0)
    2c7e:	d79ff0ef          	jal	ra,29f6 <USBFSH_CtrlTransfer>
    2c82:	e105                	bnez	a0,2ca2 <USBFSH_GetStrDescr+0x58>
    2c84:	209c                	lbu	a5,0(s1)
    2c86:	00e10613          	addi	a2,sp,14
    2c8a:	01442023          	sw	s4,0(s0)
    2c8e:	01342223          	sw	s3,4(s0)
    2c92:	85a6                	mv	a1,s1
    2c94:	8556                	mv	a0,s5
    2c96:	877c                	sh	a5,14(sp)
    2c98:	01241123          	sh	s2,2(s0)
    2c9c:	a07e                	sh	a5,6(s0)
    2c9e:	d59ff0ef          	jal	ra,29f6 <USBFSH_CtrlTransfer>
    2ca2:	0141                	addi	sp,sp,16
    2ca4:	d66fd06f          	j	20a <__riscv_restore_4>

00002ca8 <USBFSH_SetUsbAddress>:
    2ca8:	d48fd2ef          	jal	t0,1f0 <__riscv_save_0>
    2cac:	83018713          	addi	a4,gp,-2000 # 200000b0 <SetupSetAddr>
    2cb0:	4314                	lw	a3,0(a4)
    2cb2:	200017b7          	lui	a5,0x20001
    2cb6:	4358                	lw	a4,4(a4)
    2cb8:	38478793          	addi	a5,a5,900 # 20001384 <USBFS_TX_Buf>
    2cbc:	c394                	sw	a3,0(a5)
    2cbe:	a3ae                	sh	a1,2(a5)
    2cc0:	84ae                	mv	s1,a1
    2cc2:	c3d8                	sw	a4,4(a5)
    2cc4:	4601                	li	a2,0
    2cc6:	4581                	li	a1,0
    2cc8:	d2fff0ef          	jal	ra,29f6 <USBFSH_CtrlTransfer>
    2ccc:	842a                	mv	s0,a0
    2cce:	e519                	bnez	a0,2cdc <USBFSH_SetUsbAddress+0x34>
    2cd0:	8526                	mv	a0,s1
    2cd2:	affff0ef          	jal	ra,27d0 <USBFSH_SetSelfAddr>
    2cd6:	4515                	li	a0,5
    2cd8:	5c0010ef          	jal	ra,4298 <Delay_Ms>
    2cdc:	8522                	mv	a0,s0
    2cde:	d36fd06f          	j	214 <__riscv_restore_0>

00002ce2 <USBFSH_SetUsbConfig>:
    2ce2:	d0efd2ef          	jal	t0,1f0 <__riscv_save_0>
    2ce6:	83818713          	addi	a4,gp,-1992 # 200000b8 <SetupSetConfig>
    2cea:	4314                	lw	a3,0(a4)
    2cec:	200017b7          	lui	a5,0x20001
    2cf0:	4358                	lw	a4,4(a4)
    2cf2:	38478793          	addi	a5,a5,900 # 20001384 <USBFS_TX_Buf>
    2cf6:	c394                	sw	a3,0(a5)
    2cf8:	a3ae                	sh	a1,2(a5)
    2cfa:	c3d8                	sw	a4,4(a5)
    2cfc:	4601                	li	a2,0
    2cfe:	4581                	li	a1,0
    2d00:	cf7ff0ef          	jal	ra,29f6 <USBFSH_CtrlTransfer>
    2d04:	d10fd06f          	j	214 <__riscv_restore_0>

00002d08 <USBFSH_ClearEndpStall>:
    2d08:	ce8fd2ef          	jal	t0,1f0 <__riscv_save_0>
    2d0c:	81018713          	addi	a4,gp,-2032 # 20000090 <SetupClearEndpStall>
    2d10:	4314                	lw	a3,0(a4)
    2d12:	4358                	lw	a4,4(a4)
    2d14:	200017b7          	lui	a5,0x20001
    2d18:	38478793          	addi	a5,a5,900 # 20001384 <USBFS_TX_Buf>
    2d1c:	c3d8                	sw	a4,4(a5)
    2d1e:	a3ce                	sh	a1,4(a5)
    2d20:	c394                	sw	a3,0(a5)
    2d22:	4601                	li	a2,0
    2d24:	4581                	li	a1,0
    2d26:	cd1ff0ef          	jal	ra,29f6 <USBFSH_CtrlTransfer>
    2d2a:	ceafd06f          	j	214 <__riscv_restore_0>

00002d2e <USBFSH_GetEndpData>:
    2d2e:	cc2fd2ef          	jal	t0,1f0 <__riscv_save_0>
    2d32:	842e                	mv	s0,a1
    2d34:	218c                	lbu	a1,0(a1)
    2d36:	1141                	addi	sp,sp,-16
    2d38:	8932                	mv	s2,a2
    2d3a:	09056513          	ori	a0,a0,144
    2d3e:	4601                	li	a2,0
    2d40:	c636                	sw	a3,12(sp)
    2d42:	b65ff0ef          	jal	ra,28a6 <USBFSH_Transact>
    2d46:	84aa                	mv	s1,a0
    2d48:	46b2                	lw	a3,12(sp)
    2d4a:	e115                	bnez	a0,2d6e <USBFSH_GetEndpData+0x40>
    2d4c:	500007b7          	lui	a5,0x50000
    2d50:	2792                	lhu	a2,8(a5)
    2d52:	200015b7          	lui	a1,0x20001
    2d56:	34458593          	addi	a1,a1,836 # 20001344 <USBFS_RX_Buf>
    2d5a:	0642                	slli	a2,a2,0x10
    2d5c:	8241                	srli	a2,a2,0x10
    2d5e:	a292                	sh	a2,0(a3)
    2d60:	854a                	mv	a0,s2
    2d62:	64c010ef          	jal	ra,43ae <memcpy>
    2d66:	201c                	lbu	a5,0(s0)
    2d68:	0047c793          	xori	a5,a5,4
    2d6c:	a01c                	sb	a5,0(s0)
    2d6e:	8526                	mv	a0,s1
    2d70:	0141                	addi	sp,sp,16
    2d72:	ca2fd06f          	j	214 <__riscv_restore_0>

00002d76 <USBFSH_SendEndpData>:
    2d76:	c7afd2ef          	jal	t0,1f0 <__riscv_save_0>
    2d7a:	84aa                	mv	s1,a0
    2d7c:	20001537          	lui	a0,0x20001
    2d80:	1141                	addi	sp,sp,-16
    2d82:	842e                	mv	s0,a1
    2d84:	38450513          	addi	a0,a0,900 # 20001384 <USBFS_TX_Buf>
    2d88:	85b2                	mv	a1,a2
    2d8a:	8636                	mv	a2,a3
    2d8c:	c636                	sw	a3,12(sp)
    2d8e:	620010ef          	jal	ra,43ae <memcpy>
    2d92:	46b2                	lw	a3,12(sp)
    2d94:	500007b7          	lui	a5,0x50000
    2d98:	4601                	li	a2,0
    2d9a:	bfd6                	sh	a3,60(a5)
    2d9c:	200c                	lbu	a1,0(s0)
    2d9e:	0104e513          	ori	a0,s1,16
    2da2:	b05ff0ef          	jal	ra,28a6 <USBFSH_Transact>
    2da6:	e509                	bnez	a0,2db0 <USBFSH_SendEndpData+0x3a>
    2da8:	201c                	lbu	a5,0(s0)
    2daa:	0047c793          	xori	a5,a5,4
    2dae:	a01c                	sb	a5,0(s0)
    2db0:	0141                	addi	sp,sp,16
    2db2:	c62fd06f          	j	214 <__riscv_restore_0>

00002db6 <HID_GetHidDesr>:
    2db6:	e91d                	bnez	a0,2dec <HID_GetHidDesr+0x36>
    2db8:	c38fd2ef          	jal	t0,1f0 <__riscv_save_0>
    2dbc:	84018813          	addi	a6,gp,-1984 # 200000c0 <SetupGetHidDes>
    2dc0:	87ae                	mv	a5,a1
    2dc2:	85b6                	mv	a1,a3
    2dc4:	00082683          	lw	a3,0(a6)
    2dc8:	853e                	mv	a0,a5
    2dca:	200017b7          	lui	a5,0x20001
    2dce:	38d7a223          	sw	a3,900(a5) # 20001384 <USBFS_TX_Buf>
    2dd2:	00482683          	lw	a3,4(a6)
    2dd6:	38478793          	addi	a5,a5,900
    2dda:	c3d4                	sw	a3,4(a5)
    2ddc:	a3d2                	sh	a2,4(a5)
    2dde:	2316                	lhu	a3,0(a4)
    2de0:	863a                	mv	a2,a4
    2de2:	a3f6                	sh	a3,6(a5)
    2de4:	c13ff0ef          	jal	ra,29f6 <USBFSH_CtrlTransfer>
    2de8:	c2cfd06f          	j	214 <__riscv_restore_0>
    2dec:	0fb00513          	li	a0,251
    2df0:	8082                	ret

00002df2 <HID_SetReport>:
    2df2:	e90d                	bnez	a0,2e24 <HID_SetReport+0x32>
    2df4:	bfcfd2ef          	jal	t0,1f0 <__riscv_save_0>
    2df8:	84818813          	addi	a6,gp,-1976 # 200000c8 <SetupSetReport>
    2dfc:	87ae                	mv	a5,a1
    2dfe:	85b6                	mv	a1,a3
    2e00:	00082683          	lw	a3,0(a6)
    2e04:	853e                	mv	a0,a5
    2e06:	200017b7          	lui	a5,0x20001
    2e0a:	38d7a223          	sw	a3,900(a5) # 20001384 <USBFS_TX_Buf>
    2e0e:	00482683          	lw	a3,4(a6)
    2e12:	38478793          	addi	a5,a5,900
    2e16:	c3d4                	sw	a3,4(a5)
    2e18:	a3d2                	sh	a2,4(a5)
    2e1a:	863a                	mv	a2,a4
    2e1c:	bdbff0ef          	jal	ra,29f6 <USBFSH_CtrlTransfer>
    2e20:	bf4fd06f          	j	214 <__riscv_restore_0>
    2e24:	0fb00513          	li	a0,251
    2e28:	8082                	ret

00002e2a <HID_SetIdle>:
    2e2a:	e91d                	bnez	a0,2e60 <HID_SetIdle+0x36>
    2e2c:	bc4fd2ef          	jal	t0,1f0 <__riscv_save_0>
    2e30:	85018813          	addi	a6,gp,-1968 # 200000d0 <SetupSetidle>
    2e34:	852e                	mv	a0,a1
    2e36:	00082583          	lw	a1,0(a6)
    2e3a:	200017b7          	lui	a5,0x20001
    2e3e:	06a2                	slli	a3,a3,0x8
    2e40:	38b7a223          	sw	a1,900(a5) # 20001384 <USBFS_TX_Buf>
    2e44:	00482583          	lw	a1,4(a6)
    2e48:	38478793          	addi	a5,a5,900
    2e4c:	8ed9                	or	a3,a3,a4
    2e4e:	c3cc                	sw	a1,4(a5)
    2e50:	a3d2                	sh	a2,4(a5)
    2e52:	a3b6                	sh	a3,2(a5)
    2e54:	4601                	li	a2,0
    2e56:	4581                	li	a1,0
    2e58:	b9fff0ef          	jal	ra,29f6 <USBFSH_CtrlTransfer>
    2e5c:	bb8fd06f          	j	214 <__riscv_restore_0>
    2e60:	0fb00513          	li	a0,251
    2e64:	8082                	ret

00002e66 <HUB_GetPortStatus>:
    2e66:	e915                	bnez	a0,2e9a <HUB_GetPortStatus+0x34>
    2e68:	b88fd2ef          	jal	t0,1f0 <__riscv_save_0>
    2e6c:	86818713          	addi	a4,gp,-1944 # 200000e8 <GetPortStatus>
    2e70:	87ae                	mv	a5,a1
    2e72:	85b6                	mv	a1,a3
    2e74:	4314                	lw	a3,0(a4)
    2e76:	4358                	lw	a4,4(a4)
    2e78:	853e                	mv	a0,a5
    2e7a:	200017b7          	lui	a5,0x20001
    2e7e:	38d7a223          	sw	a3,900(a5) # 20001384 <USBFS_TX_Buf>
    2e82:	38478793          	addi	a5,a5,900
    2e86:	1141                	addi	sp,sp,-16
    2e88:	c3d8                	sw	a4,4(a5)
    2e8a:	a3d2                	sh	a2,4(a5)
    2e8c:	00e10613          	addi	a2,sp,14
    2e90:	b67ff0ef          	jal	ra,29f6 <USBFSH_CtrlTransfer>
    2e94:	0141                	addi	sp,sp,16
    2e96:	b7efd06f          	j	214 <__riscv_restore_0>
    2e9a:	0fb00513          	li	a0,251
    2e9e:	8082                	ret

00002ea0 <HUB_ClearPortFeature>:
    2ea0:	e51d                	bnez	a0,2ece <HUB_ClearPortFeature+0x2e>
    2ea2:	b4efd2ef          	jal	t0,1f0 <__riscv_save_0>
    2ea6:	85818713          	addi	a4,gp,-1960 # 200000d8 <ClearPortFeature>
    2eaa:	852e                	mv	a0,a1
    2eac:	430c                	lw	a1,0(a4)
    2eae:	4358                	lw	a4,4(a4)
    2eb0:	200017b7          	lui	a5,0x20001
    2eb4:	38b7a223          	sw	a1,900(a5) # 20001384 <USBFS_TX_Buf>
    2eb8:	38478793          	addi	a5,a5,900
    2ebc:	c3d8                	sw	a4,4(a5)
    2ebe:	a3d2                	sh	a2,4(a5)
    2ec0:	a3b6                	sh	a3,2(a5)
    2ec2:	4601                	li	a2,0
    2ec4:	4581                	li	a1,0
    2ec6:	b31ff0ef          	jal	ra,29f6 <USBFSH_CtrlTransfer>
    2eca:	b4afd06f          	j	214 <__riscv_restore_0>
    2ece:	0fb00513          	li	a0,251
    2ed2:	8082                	ret

00002ed4 <HUB_SetPortFeature>:
    2ed4:	e51d                	bnez	a0,2f02 <HUB_SetPortFeature+0x2e>
    2ed6:	b1afd2ef          	jal	t0,1f0 <__riscv_save_0>
    2eda:	87018713          	addi	a4,gp,-1936 # 200000f0 <SetPortFeature>
    2ede:	852e                	mv	a0,a1
    2ee0:	430c                	lw	a1,0(a4)
    2ee2:	4358                	lw	a4,4(a4)
    2ee4:	200017b7          	lui	a5,0x20001
    2ee8:	38b7a223          	sw	a1,900(a5) # 20001384 <USBFS_TX_Buf>
    2eec:	38478793          	addi	a5,a5,900
    2ef0:	c3d8                	sw	a4,4(a5)
    2ef2:	a3d2                	sh	a2,4(a5)
    2ef4:	a3b6                	sh	a3,2(a5)
    2ef6:	4601                	li	a2,0
    2ef8:	4581                	li	a1,0
    2efa:	afdff0ef          	jal	ra,29f6 <USBFSH_CtrlTransfer>
    2efe:	b16fd06f          	j	214 <__riscv_restore_0>
    2f02:	0fb00513          	li	a0,251
    2f06:	8082                	ret

00002f08 <HUB_GetClassDevDescr>:
    2f08:	e139                	bnez	a0,2f4e <HUB_GetClassDevDescr+0x46>
    2f0a:	accfd2ef          	jal	t0,1d6 <__riscv_save_4>
    2f0e:	86018793          	addi	a5,gp,-1952 # 200000e0 <GetHubDescr>
    2f12:	4398                	lw	a4,0(a5)
    2f14:	43dc                	lw	a5,4(a5)
    2f16:	8432                	mv	s0,a2
    2f18:	89ae                	mv	s3,a1
    2f1a:	20001937          	lui	s2,0x20001
    2f1e:	38e92223          	sw	a4,900(s2) # 20001384 <USBFS_TX_Buf>
    2f22:	8636                	mv	a2,a3
    2f24:	38490913          	addi	s2,s2,900
    2f28:	85a2                	mv	a1,s0
    2f2a:	854e                	mv	a0,s3
    2f2c:	84b6                	mv	s1,a3
    2f2e:	00f92223          	sw	a5,4(s2)
    2f32:	ac5ff0ef          	jal	ra,29f6 <USBFSH_CtrlTransfer>
    2f36:	e911                	bnez	a0,2f4a <HUB_GetClassDevDescr+0x42>
    2f38:	201c                	lbu	a5,0(s0)
    2f3a:	8626                	mv	a2,s1
    2f3c:	85a2                	mv	a1,s0
    2f3e:	a09e                	sh	a5,0(s1)
    2f40:	854e                	mv	a0,s3
    2f42:	00f91323          	sh	a5,6(s2)
    2f46:	ab1ff0ef          	jal	ra,29f6 <USBFSH_CtrlTransfer>
    2f4a:	ac0fd06f          	j	20a <__riscv_restore_4>
    2f4e:	0fb00513          	li	a0,251
    2f52:	8082                	ret

00002f54 <NMI_Handler>:
    2f54:	a001                	j	2f54 <NMI_Handler>

00002f56 <HardFault_Handler>:
    2f56:	beef07b7          	lui	a5,0xbeef0
    2f5a:	e000e737          	lui	a4,0xe000e
    2f5e:	08078793          	addi	a5,a5,128 # beef0080 <_eusrstack+0x9eee8080>
    2f62:	c73c                	sw	a5,72(a4)
    2f64:	a001                	j	2f64 <HardFault_Handler+0xe>

00002f66 <main>:
    2f66:	a70fd2ef          	jal	t0,1d6 <__riscv_save_4>
    2f6a:	715d                	addi	sp,sp,-80
    2f6c:	2b95                	jal	34e0 <SystemCoreClockUpdate>
    2f6e:	2ca010ef          	jal	ra,4238 <Delay_Init>
    2f72:	6571                	lui	a0,0x1c
    2f74:	20050513          	addi	a0,a0,512 # 1c200 <_data_lma+0x1623c>
    2f78:	356010ef          	jal	ra,42ce <USART_Printf_Init>
    2f7c:	20000437          	lui	s0,0x20000
    2f80:	08042583          	lw	a1,128(s0) # 20000080 <SystemCoreClock>
    2f84:	00006537          	lui	a0,0x6
    2f88:	bdc50513          	addi	a0,a0,-1060 # 5bdc <_read+0x584>
    2f8c:	4d4010ef          	jal	ra,4460 <iprintf>
    2f90:	4bd000ef          	jal	ra,3c4c <DBGMCU_GetCHIPID>
    2f94:	85aa                	mv	a1,a0
    2f96:	00006537          	lui	a0,0x6
    2f9a:	bec50513          	addi	a0,a0,-1044 # 5bec <_read+0x594>
    2f9e:	4c2010ef          	jal	ra,4460 <iprintf>
    2fa2:	00006537          	lui	a0,0x6
    2fa6:	bfc50513          	addi	a0,a0,-1028 # 5bfc <_read+0x5a4>
    2faa:	5ca010ef          	jal	ra,4574 <puts>
    2fae:	00006537          	lui	a0,0x6
    2fb2:	c2050513          	addi	a0,a0,-992 # 5c20 <_read+0x5c8>
    2fb6:	5be010ef          	jal	ra,4574 <puts>
    2fba:	00006537          	lui	a0,0x6
    2fbe:	c4050513          	addi	a0,a0,-960 # 5c40 <_read+0x5e8>
    2fc2:	5b2010ef          	jal	ra,4574 <puts>
    2fc6:	00006537          	lui	a0,0x6
    2fca:	c5850513          	addi	a0,a0,-936 # 5c58 <_read+0x600>
    2fce:	5a6010ef          	jal	ra,4574 <puts>
    2fd2:	00006537          	lui	a0,0x6
    2fd6:	c8c50513          	addi	a0,a0,-884 # 5c8c <_read+0x634>
    2fda:	59a010ef          	jal	ra,4574 <puts>
    2fde:	08042583          	lw	a1,128(s0)
    2fe2:	6789                	lui	a5,0x2
    2fe4:	71078793          	addi	a5,a5,1808 # 2710 <USBFS_RCC_Init+0x16>
    2fe8:	02f5d5b3          	divu	a1,a1,a5
    2fec:	4525                	li	a0,9
    2fee:	00006a37          	lui	s4,0x6
    2ff2:	00006ab7          	lui	s5,0x6
    2ff6:	00006937          	lui	s2,0x6
    2ffa:	15fd                	addi	a1,a1,-1
    2ffc:	05c2                	slli	a1,a1,0x10
    2ffe:	81c1                	srli	a1,a1,0x10
    3000:	f22fd0ef          	jal	ra,722 <TIM3_Init>
    3004:	00006537          	lui	a0,0x6
    3008:	cc850513          	addi	a0,a0,-824 # 5cc8 <_read+0x670>
    300c:	568010ef          	jal	ra,4574 <puts>
    3010:	00006537          	lui	a0,0x6
    3014:	cd850513          	addi	a0,a0,-808 # 5cd8 <_read+0x680>
    3018:	55c010ef          	jal	ra,4574 <puts>
    301c:	edeff0ef          	jal	ra,26fa <USBFS_RCC_Init>
    3020:	4505                	li	a0,1
    3022:	f12ff0ef          	jal	ra,2734 <USBFS_Host_Init>
    3026:	20001537          	lui	a0,0x20001
    302a:	467d                	li	a2,31
    302c:	4581                	li	a1,0
    302e:	30450513          	addi	a0,a0,772 # 20001304 <RootHubDev>
    3032:	9eefd0ef          	jal	ra,220 <memset>
    3036:	20001537          	lui	a0,0x20001
    303a:	53200613          	li	a2,1330
    303e:	4581                	li	a1,0
    3040:	8a050513          	addi	a0,a0,-1888 # 200008a0 <HostCtl>
    3044:	9dcfd0ef          	jal	ra,220 <memset>
    3048:	000e1537          	lui	a0,0xe1
    304c:	2239                	jal	315a <SubMouseSerial_Init>
    304e:	2bdd                	jal	3644 <USBHSD_Mouse_Init>
    3050:	f21fe0ef          	jal	ra,1f70 <USBH_MainDeal>
    3054:	24a1                	jal	329c <SubMouseSerial_Task>
    3056:	0868                	addi	a0,sp,28
    3058:	df8fd0ef          	jal	ra,650 <USBH_MouseBridge_ReadReport>
    305c:	84aa                	mv	s1,a0
    305e:	1048                	addi	a0,sp,36
    3060:	2e91                	jal	33b4 <SubMouseSerial_ReadReport>
    3062:	00a4e7b3          	or	a5,s1,a0
    3066:	0ff7f793          	andi	a5,a5,255
    306a:	842a                	mv	s0,a0
    306c:	c7c9                	beqz	a5,30f6 <main+0x190>
    306e:	4785                	li	a5,1
    3070:	d602                	sw	zero,44(sp)
    3072:	02011823          	sh	zero,48(sp)
    3076:	02f10923          	sb	a5,50(sp)
    307a:	c499                	beqz	s1,3088 <main+0x122>
    307c:	47f2                	lw	a5,28(sp)
    307e:	d63e                	sw	a5,44(sp)
    3080:	02015783          	lhu	a5,32(sp)
    3084:	02f11823          	sh	a5,48(sp)
    3088:	cc0d                	beqz	s0,30c2 <main+0x15c>
    308a:	02c15783          	lhu	a5,44(sp)
    308e:	02415703          	lhu	a4,36(sp)
    3092:	97ba                	add	a5,a5,a4
    3094:	02f11623          	sh	a5,44(sp)
    3098:	02615703          	lhu	a4,38(sp)
    309c:	02e15783          	lhu	a5,46(sp)
    30a0:	97ba                	add	a5,a5,a4
    30a2:	02f11723          	sh	a5,46(sp)
    30a6:	02814703          	lbu	a4,40(sp)
    30aa:	03014783          	lbu	a5,48(sp)
    30ae:	97ba                	add	a5,a5,a4
    30b0:	02f10823          	sb	a5,48(sp)
    30b4:	02914703          	lbu	a4,41(sp)
    30b8:	03114783          	lbu	a5,49(sp)
    30bc:	8fd9                	or	a5,a5,a4
    30be:	02f108a3          	sb	a5,49(sp)
    30c2:	1068                	addi	a0,sp,44
    30c4:	65e000ef          	jal	ra,3722 <USBHSD_Mouse_SendReport>
    30c8:	c531                	beqz	a0,3114 <main+0x1ae>
    30ca:	02c11583          	lh	a1,44(sp)
    30ce:	02e11603          	lh	a2,46(sp)
    30d2:	03114683          	lbu	a3,49(sp)
    30d6:	03010703          	lb	a4,48(sp)
    30da:	05000793          	li	a5,80
    30de:	e099                	bnez	s1,30e4 <main+0x17e>
    30e0:	02d00793          	li	a5,45
    30e4:	05300813          	li	a6,83
    30e8:	e019                	bnez	s0,30ee <main+0x188>
    30ea:	02d00813          	li	a6,45
    30ee:	ceca8513          	addi	a0,s5,-788 # 5cec <_read+0x694>
    30f2:	36e010ef          	jal	ra,4460 <iprintf>
    30f6:	4505                	li	a0,1
    30f8:	1a0010ef          	jal	ra,4298 <Delay_Ms>
    30fc:	89c18713          	addi	a4,gp,-1892 # 2000011c <alive_ms.5865>
    3100:	231e                	lhu	a5,0(a4)
    3102:	3e700693          	li	a3,999
    3106:	0785                	addi	a5,a5,1
    3108:	07c2                	slli	a5,a5,0x10
    310a:	83c1                	srli	a5,a5,0x10
    310c:	02f6e163          	bltu	a3,a5,312e <main+0x1c8>
    3110:	a31e                	sh	a5,0(a4)
    3112:	bf3d                	j	3050 <main+0xea>
    3114:	2501                	jal	3714 <USBHSD_Mouse_IsConfigured>
    3116:	03114703          	lbu	a4,49(sp)
    311a:	02e11683          	lh	a3,46(sp)
    311e:	02c11603          	lh	a2,44(sp)
    3122:	85aa                	mv	a1,a0
    3124:	d24a0513          	addi	a0,s4,-732 # 5d24 <_read+0x6cc>
    3128:	338010ef          	jal	ra,4460 <iprintf>
    312c:	b7e9                	j	30f6 <main+0x190>
    312e:	00071023          	sh	zero,0(a4) # e000e000 <_eusrstack+0xc0006000>
    3132:	28e1                	jal	320a <SubMouseSerial_SendAlive>
    3134:	1848                	addi	a0,sp,52
    3136:	692000ef          	jal	ra,37c8 <USBHSD_Mouse_GetDiag>
    313a:	04514583          	lbu	a1,69(sp)
    313e:	c62e                	sw	a1,12(sp)
    3140:	d40fd0ef          	jal	ra,680 <USBH_MouseBridge_IsConfigured>
    3144:	c42a                	sw	a0,8(sp)
    3146:	dd6fd0ef          	jal	ra,71c <USBH_MouseBridge_ReportCount>
    314a:	4622                	lw	a2,8(sp)
    314c:	45b2                	lw	a1,12(sp)
    314e:	86aa                	mv	a3,a0
    3150:	d5890513          	addi	a0,s2,-680 # 5d58 <_read+0x700>
    3154:	30c010ef          	jal	ra,4460 <iprintf>
    3158:	bde5                	j	3050 <main+0xea>

0000315a <SubMouseSerial_Init>:
    315a:	896fd2ef          	jal	t0,1f0 <__riscv_save_0>
    315e:	84aa                	mv	s1,a0
    3160:	6511                	lui	a0,0x4
    3162:	7179                	addi	sp,sp,-48
    3164:	4585                	li	a1,1
    3166:	0511                	addi	a0,a0,4
    3168:	ca02                	sw	zero,20(sp)
    316a:	cc02                	sw	zero,24(sp)
    316c:	ce02                	sw	zero,28(sp)
    316e:	d002                	sw	zero,32(sp)
    3170:	d202                	sw	zero,36(sp)
    3172:	d402                	sw	zero,40(sp)
    3174:	d602                	sw	zero,44(sp)
    3176:	c602                	sw	zero,12(sp)
    3178:	c802                	sw	zero,16(sp)
    317a:	58d000ef          	jal	ra,3f06 <RCC_APB2PeriphClockCmd>
    317e:	20000793          	li	a5,512
    3182:	82fc                	sh	a5,20(sp)
    3184:	40011437          	lui	s0,0x40011
    3188:	478d                	li	a5,3
    318a:	cc3e                	sw	a5,24(sp)
    318c:	084c                	addi	a1,sp,20
    318e:	47e1                	li	a5,24
    3190:	80040513          	addi	a0,s0,-2048 # 40010800 <_eusrstack+0x20008800>
    3194:	ce3e                	sw	a5,28(sp)
    3196:	2c1000ef          	jal	ra,3c56 <GPIO_Init>
    319a:	40000793          	li	a5,1024
    319e:	82fc                	sh	a5,20(sp)
    31a0:	084c                	addi	a1,sp,20
    31a2:	4791                	li	a5,4
    31a4:	80040513          	addi	a0,s0,-2048
    31a8:	ce3e                	sw	a5,28(sp)
    31aa:	40014437          	lui	s0,0x40014
    31ae:	2a9000ef          	jal	ra,3c56 <GPIO_Init>
    31b2:	100c                	addi	a1,sp,32
    31b4:	000c07b7          	lui	a5,0xc0
    31b8:	80040513          	addi	a0,s0,-2048 # 40013800 <_eusrstack+0x2000b800>
    31bc:	d026                	sw	s1,32(sp)
    31be:	d43e                	sw	a5,40(sp)
    31c0:	d202                	sw	zero,36(sp)
    31c2:	02011623          	sh	zero,44(sp)
    31c6:	741000ef          	jal	ra,4106 <USART_Init>
    31ca:	13500793          	li	a5,309
    31ce:	867c                	sh	a5,12(sp)
    31d0:	4785                	li	a5,1
    31d2:	875c                	sb	a5,14(sp)
    31d4:	0068                	addi	a0,sp,12
    31d6:	4785                	li	a5,1
    31d8:	c83e                	sw	a5,16(sp)
    31da:	33d000ef          	jal	ra,3d16 <NVIC_Init>
    31de:	4605                	li	a2,1
    31e0:	80040513          	addi	a0,s0,-2048
    31e4:	52500593          	li	a1,1317
    31e8:	7c5000ef          	jal	ra,41ac <USART_ITConfig>
    31ec:	80040513          	addi	a0,s0,-2048
    31f0:	4585                	li	a1,1
    31f2:	7a5000ef          	jal	ra,4196 <USART_Cmd>
    31f6:	00006537          	lui	a0,0x6
    31fa:	85a6                	mv	a1,s1
    31fc:	d8450513          	addi	a0,a0,-636 # 5d84 <_read+0x72c>
    3200:	260010ef          	jal	ra,4460 <iprintf>
    3204:	6145                	addi	sp,sp,48
    3206:	80efd06f          	j	214 <__riscv_restore_0>

0000320a <SubMouseSerial_SendAlive>:
    320a:	fe7fc2ef          	jal	t0,1f0 <__riscv_save_0>
    320e:	00006437          	lui	s0,0x6
    3212:	400144b7          	lui	s1,0x40014
    3216:	db840413          	addi	s0,s0,-584 # 5db8 <_read+0x760>
    321a:	80048493          	addi	s1,s1,-2048 # 40013800 <_eusrstack+0x2000b800>
    321e:	00040903          	lb	s2,0(s0)
    3222:	00091463          	bnez	s2,322a <SubMouseSerial_SendAlive+0x20>
    3226:	feffc06f          	j	214 <__riscv_restore_0>
    322a:	04000593          	li	a1,64
    322e:	8526                	mv	a0,s1
    3230:	7c3000ef          	jal	ra,41f2 <USART_GetFlagStatus>
    3234:	d97d                	beqz	a0,322a <SubMouseSerial_SendAlive+0x20>
    3236:	01091593          	slli	a1,s2,0x10
    323a:	81c1                	srli	a1,a1,0x10
    323c:	8526                	mv	a0,s1
    323e:	0405                	addi	s0,s0,1
    3240:	7a3000ef          	jal	ra,41e2 <USART_SendData>
    3244:	bfe9                	j	321e <SubMouseSerial_SendAlive+0x14>

00003246 <USART1_IRQHandler>:
    3246:	1141                	addi	sp,sp,-16
    3248:	c24a                	sw	s2,4(sp)
    324a:	40014937          	lui	s2,0x40014
    324e:	52500593          	li	a1,1317
    3252:	80090513          	addi	a0,s2,-2048 # 40013800 <_eusrstack+0x2000b800>
    3256:	c622                	sw	s0,12(sp)
    3258:	c426                	sw	s1,8(sp)
    325a:	7a3000ef          	jal	ra,41fc <USART_GetITStatus>
    325e:	c90d                	beqz	a0,3290 <USART1_IRQHandler+0x4a>
    3260:	8ab18493          	addi	s1,gp,-1877 # 2000012b <rx_w>
    3264:	80090513          	addi	a0,s2,-2048
    3268:	2080                	lbu	s0,0(s1)
    326a:	781000ef          	jal	ra,41ea <USART_ReceiveData>
    326e:	8aa1c783          	lbu	a5,-1878(gp) # 2000012a <rx_r>
    3272:	0405                	addi	s0,s0,1
    3274:	07f47413          	andi	s0,s0,127
    3278:	00f40c63          	beq	s0,a5,3290 <USART1_IRQHandler+0x4a>
    327c:	2098                	lbu	a4,0(s1)
    327e:	200017b7          	lui	a5,0x20001
    3282:	3d078793          	addi	a5,a5,976 # 200013d0 <rx_buf>
    3286:	0ff57513          	andi	a0,a0,255
    328a:	97ba                	add	a5,a5,a4
    328c:	a388                	sb	a0,0(a5)
    328e:	a080                	sb	s0,0(s1)
    3290:	4432                	lw	s0,12(sp)
    3292:	44a2                	lw	s1,8(sp)
    3294:	4912                	lw	s2,4(sp)
    3296:	0141                	addi	sp,sp,16
    3298:	30200073          	mret

0000329c <SubMouseSerial_Task>:
    329c:	f3bfc2ef          	jal	t0,1d6 <__riscv_save_4>
    32a0:	20001937          	lui	s2,0x20001
    32a4:	20001437          	lui	s0,0x20001
    32a8:	3d090913          	addi	s2,s2,976 # 200013d0 <rx_buf>
    32ac:	3c440413          	addi	s0,s0,964 # 200013c4 <frame.5389>
    32b0:	8a018493          	addi	s1,gp,-1888 # 20000120 <pending_report>
    32b4:	8aa18693          	addi	a3,gp,-1878 # 2000012a <rx_r>
    32b8:	8ab18793          	addi	a5,gp,-1877 # 2000012b <rx_w>
    32bc:	2298                	lbu	a4,0(a3)
    32be:	239c                	lbu	a5,0(a5)
    32c0:	0ff7f793          	andi	a5,a5,255
    32c4:	0ee78663          	beq	a5,a4,33b0 <SubMouseSerial_Task+0x114>
    32c8:	229c                	lbu	a5,0(a3)
    32ca:	97ca                	add	a5,a5,s2
    32cc:	239c                	lbu	a5,0(a5)
    32ce:	2298                	lbu	a4,0(a3)
    32d0:	0ff7f793          	andi	a5,a5,255
    32d4:	0705                	addi	a4,a4,1
    32d6:	07f77713          	andi	a4,a4,127
    32da:	a298                	sb	a4,0(a3)
    32dc:	8a918693          	addi	a3,gp,-1879 # 20000129 <pos.5390>
    32e0:	2298                	lbu	a4,0(a3)
    32e2:	8a918a93          	addi	s5,gp,-1879 # 20000129 <pos.5390>
    32e6:	cf09                	beqz	a4,3300 <SubMouseSerial_Task+0x64>
    32e8:	4605                	li	a2,1
    32ea:	02c71963          	bne	a4,a2,331c <SubMouseSerial_Task+0x80>
    32ee:	05a00713          	li	a4,90
    32f2:	02e78163          	beq	a5,a4,3314 <SubMouseSerial_Task+0x78>
    32f6:	f5b78793          	addi	a5,a5,-165
    32fa:	0017b793          	seqz	a5,a5
    32fe:	a031                	j	330a <SubMouseSerial_Task+0x6e>
    3300:	0a500713          	li	a4,165
    3304:	fae798e3          	bne	a5,a4,32b4 <SubMouseSerial_Task+0x18>
    3308:	4785                	li	a5,1
    330a:	a29c                	sb	a5,0(a3)
    330c:	fa500793          	li	a5,-91
    3310:	a01c                	sb	a5,0(s0)
    3312:	b74d                	j	32b4 <SubMouseSerial_Task+0x18>
    3314:	4709                	li	a4,2
    3316:	a298                	sb	a4,0(a3)
    3318:	b01c                	sb	a5,1(s0)
    331a:	bf69                	j	32b4 <SubMouseSerial_Task+0x18>
    331c:	00170693          	addi	a3,a4,1
    3320:	0ff6f693          	andi	a3,a3,255
    3324:	9722                	add	a4,a4,s0
    3326:	a31c                	sb	a5,0(a4)
    3328:	00da8023          	sb	a3,0(s5)
    332c:	47a9                	li	a5,10
    332e:	f8f693e3          	bne	a3,a5,32b4 <SubMouseSerial_Task+0x18>
    3332:	4781                	li	a5,0
    3334:	4681                	li	a3,0
    3336:	4725                	li	a4,9
    3338:	00f40633          	add	a2,s0,a5
    333c:	2210                	lbu	a2,0(a2)
    333e:	0785                	addi	a5,a5,1
    3340:	96b2                	add	a3,a3,a2
    3342:	0ff6f693          	andi	a3,a3,255
    3346:	fee799e3          	bne	a5,a4,3338 <SubMouseSerial_Task+0x9c>
    334a:	3410                	lbu	a2,9(s0)
    334c:	04d61463          	bne	a2,a3,3394 <SubMouseSerial_Task+0xf8>
    3350:	3054                	lbu	a3,5(s0)
    3352:	205c                	lbu	a5,4(s0)
    3354:	3078                	lbu	a4,7(s0)
    3356:	06a2                	slli	a3,a3,0x8
    3358:	8edd                	or	a3,a3,a5
    335a:	207c                	lbu	a5,6(s0)
    335c:	0722                	slli	a4,a4,0x8
    335e:	4585                	li	a1,1
    3360:	8f5d                	or	a4,a4,a5
    3362:	405c                	lw	a5,4(s0)
    3364:	3030                	lbu	a2,3(s0)
    3366:	8ab18423          	sb	a1,-1880(gp) # 20000128 <pending_valid>
    336a:	c09c                	sw	a5,0(s1)
    336c:	a0ec                	sb	a1,6(s1)
    336e:	00840783          	lb	a5,8(s0)
    3372:	202c                	lbu	a1,2(s0)
    3374:	0742                	slli	a4,a4,0x10
    3376:	06c2                	slli	a3,a3,0x10
    3378:	00006537          	lui	a0,0x6
    337c:	8a1d                	andi	a2,a2,7
    337e:	8741                	srai	a4,a4,0x10
    3380:	86c1                	srai	a3,a3,0x10
    3382:	dc850513          	addi	a0,a0,-568 # 5dc8 <_read+0x770>
    3386:	a0dc                	sb	a5,4(s1)
    3388:	b0d0                	sb	a2,5(s1)
    338a:	0d6010ef          	jal	ra,4460 <iprintf>
    338e:	000a8023          	sb	zero,0(s5)
    3392:	b70d                	j	32b4 <SubMouseSerial_Task+0x18>
    3394:	89e18793          	addi	a5,gp,-1890 # 2000011e <bad_checksum_count>
    3398:	238e                	lhu	a1,0(a5)
    339a:	00006537          	lui	a0,0x6
    339e:	df450513          	addi	a0,a0,-524 # 5df4 <_read+0x79c>
    33a2:	0585                	addi	a1,a1,1
    33a4:	05c2                	slli	a1,a1,0x10
    33a6:	81c1                	srli	a1,a1,0x10
    33a8:	a38e                	sh	a1,0(a5)
    33aa:	0b6010ef          	jal	ra,4460 <iprintf>
    33ae:	b7c5                	j	338e <SubMouseSerial_Task+0xf2>
    33b0:	e5bfc06f          	j	20a <__riscv_restore_4>

000033b4 <SubMouseSerial_ReadReport>:
    33b4:	e3dfc2ef          	jal	t0,1f0 <__riscv_save_0>
    33b8:	8a818413          	addi	s0,gp,-1880 # 20000128 <pending_valid>
    33bc:	201c                	lbu	a5,0(s0)
    33be:	c38d                	beqz	a5,33e0 <SubMouseSerial_ReadReport+0x2c>
    33c0:	8a018493          	addi	s1,gp,-1888 # 20000120 <pending_report>
    33c4:	4621                	li	a2,8
    33c6:	8a018593          	addi	a1,gp,-1888 # 20000120 <pending_report>
    33ca:	7e5000ef          	jal	ra,43ae <memcpy>
    33ce:	4785                	li	a5,1
    33d0:	0004a023          	sw	zero,0(s1)
    33d4:	00048223          	sb	zero,4(s1)
    33d8:	00048323          	sb	zero,6(s1)
    33dc:	00040023          	sb	zero,0(s0)
    33e0:	853e                	mv	a0,a5
    33e2:	e33fc06f          	j	214 <__riscv_restore_0>

000033e6 <SystemInit>:
    33e6:	400217b7          	lui	a5,0x40021
    33ea:	4398                	lw	a4,0(a5)
    33ec:	f0ff06b7          	lui	a3,0xf0ff0
    33f0:	1141                	addi	sp,sp,-16
    33f2:	00176713          	ori	a4,a4,1
    33f6:	c398                	sw	a4,0(a5)
    33f8:	43d8                	lw	a4,4(a5)
    33fa:	00020637          	lui	a2,0x20
    33fe:	8f75                	and	a4,a4,a3
    3400:	c3d8                	sw	a4,4(a5)
    3402:	4398                	lw	a4,0(a5)
    3404:	fef706b7          	lui	a3,0xfef70
    3408:	16fd                	addi	a3,a3,-1
    340a:	8f75                	and	a4,a4,a3
    340c:	c398                	sw	a4,0(a5)
    340e:	4398                	lw	a4,0(a5)
    3410:	fffc06b7          	lui	a3,0xfffc0
    3414:	16fd                	addi	a3,a3,-1
    3416:	8f75                	and	a4,a4,a3
    3418:	c398                	sw	a4,0(a5)
    341a:	43d8                	lw	a4,4(a5)
    341c:	ff0106b7          	lui	a3,0xff010
    3420:	16fd                	addi	a3,a3,-1
    3422:	8f75                	and	a4,a4,a3
    3424:	c3d8                	sw	a4,4(a5)
    3426:	4398                	lw	a4,0(a5)
    3428:	ec0006b7          	lui	a3,0xec000
    342c:	16fd                	addi	a3,a3,-1
    342e:	8f75                	and	a4,a4,a3
    3430:	c398                	sw	a4,0(a5)
    3432:	00ff0737          	lui	a4,0xff0
    3436:	c798                	sw	a4,8(a5)
    3438:	0207a623          	sw	zero,44(a5) # 4002102c <_eusrstack+0x2001902c>
    343c:	c402                	sw	zero,8(sp)
    343e:	c602                	sw	zero,12(sp)
    3440:	4398                	lw	a4,0(a5)
    3442:	66c1                	lui	a3,0x10
    3444:	8f55                	or	a4,a4,a3
    3446:	c398                	sw	a4,0(a5)
    3448:	400216b7          	lui	a3,0x40021
    344c:	6705                	lui	a4,0x1
    344e:	429c                	lw	a5,0(a3)
    3450:	8ff1                	and	a5,a5,a2
    3452:	c63e                	sw	a5,12(sp)
    3454:	47a2                	lw	a5,8(sp)
    3456:	0785                	addi	a5,a5,1
    3458:	c43e                	sw	a5,8(sp)
    345a:	47b2                	lw	a5,12(sp)
    345c:	e781                	bnez	a5,3464 <SystemInit+0x7e>
    345e:	47a2                	lw	a5,8(sp)
    3460:	fee797e3          	bne	a5,a4,344e <SystemInit+0x68>
    3464:	400217b7          	lui	a5,0x40021
    3468:	439c                	lw	a5,0(a5)
    346a:	00e79713          	slli	a4,a5,0xe
    346e:	06075763          	bgez	a4,34dc <SystemInit+0xf6>
    3472:	4785                	li	a5,1
    3474:	c63e                	sw	a5,12(sp)
    3476:	4732                	lw	a4,12(sp)
    3478:	4785                	li	a5,1
    347a:	04f71f63          	bne	a4,a5,34d8 <SystemInit+0xf2>
    347e:	400217b7          	lui	a5,0x40021
    3482:	43d8                	lw	a4,4(a5)
    3484:	ffc106b7          	lui	a3,0xffc10
    3488:	16fd                	addi	a3,a3,-1
    348a:	c3d8                	sw	a4,4(a5)
    348c:	43d8                	lw	a4,4(a5)
    348e:	c3d8                	sw	a4,4(a5)
    3490:	43d8                	lw	a4,4(a5)
    3492:	40076713          	ori	a4,a4,1024
    3496:	c3d8                	sw	a4,4(a5)
    3498:	43d8                	lw	a4,4(a5)
    349a:	8f75                	and	a4,a4,a3
    349c:	c3d8                	sw	a4,4(a5)
    349e:	43d8                	lw	a4,4(a5)
    34a0:	002906b7          	lui	a3,0x290
    34a4:	8f55                	or	a4,a4,a3
    34a6:	c3d8                	sw	a4,4(a5)
    34a8:	4398                	lw	a4,0(a5)
    34aa:	010006b7          	lui	a3,0x1000
    34ae:	8f55                	or	a4,a4,a3
    34b0:	c398                	sw	a4,0(a5)
    34b2:	4398                	lw	a4,0(a5)
    34b4:	00671693          	slli	a3,a4,0x6
    34b8:	fe06dde3          	bgez	a3,34b2 <SystemInit+0xcc>
    34bc:	43d8                	lw	a4,4(a5)
    34be:	400216b7          	lui	a3,0x40021
    34c2:	9b71                	andi	a4,a4,-4
    34c4:	c3d8                	sw	a4,4(a5)
    34c6:	43d8                	lw	a4,4(a5)
    34c8:	00276713          	ori	a4,a4,2
    34cc:	c3d8                	sw	a4,4(a5)
    34ce:	4721                	li	a4,8
    34d0:	42dc                	lw	a5,4(a3)
    34d2:	8bb1                	andi	a5,a5,12
    34d4:	fee79ee3          	bne	a5,a4,34d0 <SystemInit+0xea>
    34d8:	0141                	addi	sp,sp,16
    34da:	8082                	ret
    34dc:	c602                	sw	zero,12(sp)
    34de:	bf61                	j	3476 <SystemInit+0x90>

000034e0 <SystemCoreClockUpdate>:
    34e0:	40021637          	lui	a2,0x40021
    34e4:	425c                	lw	a5,4(a2)
    34e6:	20000737          	lui	a4,0x20000
    34ea:	4691                	li	a3,4
    34ec:	8bb1                	andi	a5,a5,12
    34ee:	08070713          	addi	a4,a4,128 # 20000080 <SystemCoreClock>
    34f2:	00d78563          	beq	a5,a3,34fc <SystemCoreClockUpdate+0x1c>
    34f6:	46a1                	li	a3,8
    34f8:	02d78863          	beq	a5,a3,3528 <SystemCoreClockUpdate+0x48>
    34fc:	007a17b7          	lui	a5,0x7a1
    3500:	20078793          	addi	a5,a5,512 # 7a1200 <_data_lma+0x79b23c>
    3504:	c31c                	sw	a5,0(a4)
    3506:	400217b7          	lui	a5,0x40021
    350a:	43dc                	lw	a5,4(a5)
    350c:	8391                	srli	a5,a5,0x4
    350e:	00f7f693          	andi	a3,a5,15
    3512:	200007b7          	lui	a5,0x20000
    3516:	00078793          	mv	a5,a5
    351a:	97b6                	add	a5,a5,a3
    351c:	2394                	lbu	a3,0(a5)
    351e:	431c                	lw	a5,0(a4)
    3520:	00d7d7b3          	srl	a5,a5,a3
    3524:	c31c                	sw	a5,0(a4)
    3526:	8082                	ret
    3528:	4254                	lw	a3,4(a2)
    352a:	4250                	lw	a2,4(a2)
    352c:	67c1                	lui	a5,0x10
    352e:	82c9                	srli	a3,a3,0x12
    3530:	8abd                	andi	a3,a3,15
    3532:	8e7d                	and	a2,a2,a5
    3534:	00268793          	addi	a5,a3,2 # 40021002 <_eusrstack+0x20019002>
    3538:	ca85                	beqz	a3,3568 <SystemCoreClockUpdate+0x88>
    353a:	46bd                	li	a3,15
    353c:	02d78963          	beq	a5,a3,356e <SystemCoreClockUpdate+0x8e>
    3540:	46c1                	li	a3,16
    3542:	02d78963          	beq	a5,a3,3574 <SystemCoreClockUpdate+0x94>
    3546:	45c5                	li	a1,17
    3548:	4681                	li	a3,0
    354a:	00b79363          	bne	a5,a1,3550 <SystemCoreClockUpdate+0x70>
    354e:	47c1                	li	a5,16
    3550:	e60d                	bnez	a2,357a <SystemCoreClockUpdate+0x9a>
    3552:	40024637          	lui	a2,0x40024
    3556:	80062603          	lw	a2,-2048(a2) # 40023800 <_eusrstack+0x2001b800>
    355a:	8a41                	andi	a2,a2,16
    355c:	c615                	beqz	a2,3588 <SystemCoreClockUpdate+0xa8>
    355e:	007a1637          	lui	a2,0x7a1
    3562:	20060613          	addi	a2,a2,512 # 7a1200 <_data_lma+0x79b23c>
    3566:	a02d                	j	3590 <SystemCoreClockUpdate+0xb0>
    3568:	4681                	li	a3,0
    356a:	47c9                	li	a5,18
    356c:	b7d5                	j	3550 <SystemCoreClockUpdate+0x70>
    356e:	4685                	li	a3,1
    3570:	47b5                	li	a5,13
    3572:	bff9                	j	3550 <SystemCoreClockUpdate+0x70>
    3574:	4681                	li	a3,0
    3576:	47bd                	li	a5,15
    3578:	bfe1                	j	3550 <SystemCoreClockUpdate+0x70>
    357a:	40021637          	lui	a2,0x40021
    357e:	4250                	lw	a2,4(a2)
    3580:	00e61593          	slli	a1,a2,0xe
    3584:	fc05dde3          	bgez	a1,355e <SystemCoreClockUpdate+0x7e>
    3588:	003d1637          	lui	a2,0x3d1
    358c:	90060613          	addi	a2,a2,-1792 # 3d0900 <_data_lma+0x3ca93c>
    3590:	02c787b3          	mul	a5,a5,a2
    3594:	c31c                	sw	a5,0(a4)
    3596:	daa5                	beqz	a3,3506 <SystemCoreClockUpdate+0x26>
    3598:	431c                	lw	a5,0(a4)
    359a:	8385                	srli	a5,a5,0x1
    359c:	b7a5                	j	3504 <SystemCoreClockUpdate+0x24>

0000359e <hs_endpoint_init>:
    359e:	6741                	lui	a4,0x10
    35a0:	400237b7          	lui	a5,0x40023
    35a4:	070d                	addi	a4,a4,3
    35a6:	40e7a823          	sw	a4,1040(a5) # 40023410 <_eusrstack+0x2001b410>
    35aa:	4007aa23          	sw	zero,1044(a5)
    35ae:	20001737          	lui	a4,0x20001
    35b2:	4007ac23          	sw	zero,1048(a5)
    35b6:	45070713          	addi	a4,a4,1104 # 20001450 <ep0_buf>
    35ba:	40e7ae23          	sw	a4,1052(a5)
    35be:	20001737          	lui	a4,0x20001
    35c2:	49070713          	addi	a4,a4,1168 # 20001490 <ep1_buf>
    35c6:	44e7ae23          	sw	a4,1116(a5)
    35ca:	04000713          	li	a4,64
    35ce:	48e79c23          	sh	a4,1176(a5)
    35d2:	48e79e23          	sh	a4,1180(a5)
    35d6:	4c078da3          	sb	zero,1243(a5)
    35da:	4709                	li	a4,2
    35dc:	4ce78d23          	sb	a4,1242(a5)
    35e0:	4ce78f23          	sb	a4,1246(a5)
    35e4:	4c079e23          	sh	zero,1244(a5)
    35e8:	8c018823          	sb	zero,-1840(gp) # 20000150 <ep1_busy>
    35ec:	8082                	ret

000035ee <copy_ctrl_data>:
    35ee:	be9fc2ef          	jal	t0,1d6 <__riscv_save_4>
    35f2:	8ac18793          	addi	a5,gp,-1876 # 2000012c <ctrl_len>
    35f6:	239e                	lhu	a5,0(a5)
    35f8:	04000713          	li	a4,64
    35fc:	8ac18493          	addi	s1,gp,-1876 # 2000012c <ctrl_len>
    3600:	02f76f63          	bltu	a4,a5,363e <copy_ctrl_data+0x50>
    3604:	2082                	lhu	s0,0(s1)
    3606:	0ff47413          	andi	s0,s0,255
    360a:	c41d                	beqz	s0,3638 <copy_ctrl_data+0x4a>
    360c:	8b018993          	addi	s3,gp,-1872 # 20000130 <ctrl_ptr>
    3610:	0009a903          	lw	s2,0(s3)
    3614:	02090263          	beqz	s2,3638 <copy_ctrl_data+0x4a>
    3618:	20001537          	lui	a0,0x20001
    361c:	85ca                	mv	a1,s2
    361e:	8622                	mv	a2,s0
    3620:	45050513          	addi	a0,a0,1104 # 20001450 <ep0_buf>
    3624:	58b000ef          	jal	ra,43ae <memcpy>
    3628:	209e                	lhu	a5,0(s1)
    362a:	9922                	add	s2,s2,s0
    362c:	0129a023          	sw	s2,0(s3)
    3630:	8f81                	sub	a5,a5,s0
    3632:	07c2                	slli	a5,a5,0x10
    3634:	83c1                	srli	a5,a5,0x10
    3636:	a09e                	sh	a5,0(s1)
    3638:	8522                	mv	a0,s0
    363a:	bd1fc06f          	j	20a <__riscv_restore_4>
    363e:	04000413          	li	s0,64
    3642:	b7e9                	j	360c <copy_ctrl_data+0x1e>

00003644 <USBHSD_Mouse_Init>:
    3644:	badfc2ef          	jal	t0,1f0 <__riscv_save_0>
    3648:	4505                	li	a0,1
    364a:	16b000ef          	jal	ra,3fb4 <RCC_USBCLK48MConfig>
    364e:	4501                	li	a0,0
    3650:	10d000ef          	jal	ra,3f5c <RCC_USBHSPLLCLKConfig>
    3654:	4505                	li	a0,1
    3656:	0ed000ef          	jal	ra,3f42 <RCC_USBHSConfig>
    365a:	4505                	li	a0,1
    365c:	11b000ef          	jal	ra,3f76 <RCC_USBHSPLLCKREFCLKConfig>
    3660:	4505                	li	a0,1
    3662:	12f000ef          	jal	ra,3f90 <RCC_USBHSPHYPLLALIVEcmd>
    3666:	6505                	lui	a0,0x1
    3668:	4585                	li	a1,1
    366a:	80050513          	addi	a0,a0,-2048 # 800 <__stack_size>
    366e:	07b000ef          	jal	ra,3ee8 <RCC_AHBPeriphClockCmd>
    3672:	40023437          	lui	s0,0x40023
    3676:	4799                	li	a5,6
    3678:	40f40023          	sb	a5,1024(s0) # 40023400 <_eusrstack+0x2001b400>
    367c:	4529                	li	a0,10
    367e:	3e5000ef          	jal	ra,4262 <Delay_Us>
    3682:	40040023          	sb	zero,1024(s0)
    3686:	8a018a23          	sb	zero,-1868(gp) # 20000134 <dev_addr>
    368a:	8a018aa3          	sb	zero,-1867(gp) # 20000135 <dev_config>
    368e:	8c0188a3          	sb	zero,-1839(gp) # 20000151 <hid_idle>
    3692:	4705                	li	a4,1
    3694:	8ce18923          	sb	a4,-1838(gp) # 20000152 <hid_protocol>
    3698:	8c01a023          	sw	zero,-1856(gp) # 20000140 <diag_reset_count>
    369c:	8c01a623          	sw	zero,-1844(gp) # 2000014c <diag_setup_count>
    36a0:	8c01a223          	sw	zero,-1852(gp) # 20000144 <diag_set_addr_count>
    36a4:	8c01a423          	sw	zero,-1848(gp) # 20000148 <diag_set_config_count>
    36a8:	8a018ea3          	sb	zero,-1859(gp) # 2000013d <diag_last_req_type>
    36ac:	8a018e23          	sb	zero,-1860(gp) # 2000013c <diag_last_req>
    36b0:	8a019f23          	sh	zero,-1858(gp) # 2000013e <diag_last_value>
    36b4:	8a019b23          	sh	zero,-1866(gp) # 20000136 <diag_last_index>
    36b8:	8a019d23          	sh	zero,-1862(gp) # 2000013a <diag_last_length>
    36bc:	8a018c23          	sb	zero,-1864(gp) # 20000138 <diag_last_intflag>
    36c0:	8a018ca3          	sb	zero,-1863(gp) # 20000139 <diag_last_intst>
    36c4:	edbff0ef          	jal	ra,359e <hs_endpoint_init>
    36c8:	57fd                	li	a5,-1
    36ca:	400401a3          	sb	zero,1027(s0)
    36ce:	40f40523          	sb	a5,1034(s0)
    36d2:	47c1                	li	a5,16
    36d4:	40f400a3          	sb	a5,1025(s0)
    36d8:	02900793          	li	a5,41
    36dc:	40f40023          	sb	a5,1024(s0)
    36e0:	02700793          	li	a5,39
    36e4:	40f40123          	sb	a5,1026(s0)
    36e8:	40044783          	lbu	a5,1024(s0)
    36ec:	00200737          	lui	a4,0x200
    36f0:	00006537          	lui	a0,0x6
    36f4:	0107e793          	ori	a5,a5,16
    36f8:	40f40023          	sb	a5,1024(s0)
    36fc:	e000e7b7          	lui	a5,0xe000e
    3700:	10e7a423          	sw	a4,264(a5) # e000e108 <_eusrstack+0xc0006108>
    3704:	e5050513          	addi	a0,a0,-432 # 5e50 <_read+0x7f8>
    3708:	66d000ef          	jal	ra,4574 <puts>
    370c:	40040493          	addi	s1,s0,1024
    3710:	b05fc06f          	j	214 <__riscv_restore_0>

00003714 <USBHSD_Mouse_IsConfigured>:
    3714:	8b51c503          	lbu	a0,-1867(gp) # 20000135 <dev_config>
    3718:	0ff57513          	andi	a0,a0,255
    371c:	00a03533          	snez	a0,a0
    3720:	8082                	ret

00003722 <USBHSD_Mouse_SendReport>:
    3722:	8b51c783          	lbu	a5,-1867(gp) # 20000135 <dev_config>
    3726:	86aa                	mv	a3,a0
    3728:	0ff7f793          	andi	a5,a5,255
    372c:	cfc1                	beqz	a5,37c4 <USBHSD_Mouse_SendReport+0xa2>
    372e:	8d018713          	addi	a4,gp,-1840 # 20000150 <ep1_busy>
    3732:	2310                	lbu	a2,0(a4)
    3734:	4501                	li	a0,0
    3736:	0ff67613          	andi	a2,a2,255
    373a:	e651                	bnez	a2,37c6 <USBHSD_Mouse_SendReport+0xa4>
    373c:	32d0                	lbu	a2,5(a3)
    373e:	200017b7          	lui	a5,0x20001
    3742:	07f00513          	li	a0,127
    3746:	8a1d                	andi	a2,a2,7
    3748:	48c78823          	sb	a2,1168(a5) # 20001490 <ep1_buf>
    374c:	00069583          	lh	a1,0(a3)
    3750:	49078793          	addi	a5,a5,1168
    3754:	07f00613          	li	a2,127
    3758:	00b54b63          	blt	a0,a1,376e <USBHSD_Mouse_SendReport+0x4c>
    375c:	f8100513          	li	a0,-127
    3760:	f8100613          	li	a2,-127
    3764:	00a5c563          	blt	a1,a0,376e <USBHSD_Mouse_SendReport+0x4c>
    3768:	01859613          	slli	a2,a1,0x18
    376c:	8661                	srai	a2,a2,0x18
    376e:	b390                	sb	a2,1(a5)
    3770:	00269583          	lh	a1,2(a3)
    3774:	07f00513          	li	a0,127
    3778:	07f00613          	li	a2,127
    377c:	00b54b63          	blt	a0,a1,3792 <USBHSD_Mouse_SendReport+0x70>
    3780:	f8100513          	li	a0,-127
    3784:	f8100613          	li	a2,-127
    3788:	00a5c563          	blt	a1,a0,3792 <USBHSD_Mouse_SendReport+0x70>
    378c:	01859613          	slli	a2,a1,0x18
    3790:	8661                	srai	a2,a2,0x18
    3792:	a3b0                	sb	a2,2(a5)
    3794:	00468683          	lb	a3,4(a3)
    3798:	f8000613          	li	a2,-128
    379c:	00c69463          	bne	a3,a2,37a4 <USBHSD_Mouse_SendReport+0x82>
    37a0:	f8100693          	li	a3,-127
    37a4:	b3b4                	sb	a3,3(a5)
    37a6:	4785                	li	a5,1
    37a8:	a31c                	sb	a5,0(a4)
    37aa:	400237b7          	lui	a5,0x40023
    37ae:	4711                	li	a4,4
    37b0:	4ce79e23          	sh	a4,1244(a5) # 400234dc <_eusrstack+0x2001b4dc>
    37b4:	4de7c703          	lbu	a4,1246(a5)
    37b8:	4505                	li	a0,1
    37ba:	0fc77713          	andi	a4,a4,252
    37be:	4ce78f23          	sb	a4,1246(a5)
    37c2:	8082                	ret
    37c4:	4501                	li	a0,0
    37c6:	8082                	ret

000037c8 <USBHSD_Mouse_GetDiag>:
    37c8:	8c01a783          	lw	a5,-1856(gp) # 20000140 <diag_reset_count>
    37cc:	c11c                	sw	a5,0(a0)
    37ce:	8cc1a783          	lw	a5,-1844(gp) # 2000014c <diag_setup_count>
    37d2:	c15c                	sw	a5,4(a0)
    37d4:	8c41a783          	lw	a5,-1852(gp) # 20000144 <diag_set_addr_count>
    37d8:	c51c                	sw	a5,8(a0)
    37da:	8c81a783          	lw	a5,-1848(gp) # 20000148 <diag_set_config_count>
    37de:	c55c                	sw	a5,12(a0)
    37e0:	8b41c783          	lbu	a5,-1868(gp) # 20000134 <dev_addr>
    37e4:	a91c                	sb	a5,16(a0)
    37e6:	8b51c783          	lbu	a5,-1867(gp) # 20000135 <dev_config>
    37ea:	b91c                	sb	a5,17(a0)
    37ec:	8bd1c783          	lbu	a5,-1859(gp) # 2000013d <diag_last_req_type>
    37f0:	a93c                	sb	a5,18(a0)
    37f2:	8bc1c783          	lbu	a5,-1860(gp) # 2000013c <diag_last_req>
    37f6:	b93c                	sb	a5,19(a0)
    37f8:	8be1d783          	lhu	a5,-1858(gp) # 2000013e <diag_last_value>
    37fc:	a95e                	sh	a5,20(a0)
    37fe:	8b61d783          	lhu	a5,-1866(gp) # 20000136 <diag_last_index>
    3802:	a97e                	sh	a5,22(a0)
    3804:	8ba1d783          	lhu	a5,-1862(gp) # 2000013a <diag_last_length>
    3808:	ad1e                	sh	a5,24(a0)
    380a:	8b81c783          	lbu	a5,-1864(gp) # 20000138 <diag_last_intflag>
    380e:	ad3c                	sb	a5,26(a0)
    3810:	8b91c783          	lbu	a5,-1863(gp) # 20000139 <diag_last_intst>
    3814:	bd3c                	sb	a5,27(a0)
    3816:	8082                	ret

00003818 <USBHS_IRQHandler>:
    3818:	1141                	addi	sp,sp,-16
    381a:	c622                	sw	s0,12(sp)
    381c:	40023437          	lui	s0,0x40023
    3820:	40040413          	addi	s0,s0,1024 # 40023400 <_eusrstack+0x2001b400>
    3824:	2438                	lbu	a4,10(s0)
    3826:	343c                	lbu	a5,11(s0)
    3828:	0ff77713          	andi	a4,a4,255
    382c:	8ae18c23          	sb	a4,-1864(gp) # 20000138 <diag_last_intflag>
    3830:	0ff7f793          	andi	a5,a5,255
    3834:	8af18ca3          	sb	a5,-1863(gp) # 20000139 <diag_last_intst>
    3838:	00277693          	andi	a3,a4,2
    383c:	cadd                	beqz	a3,38f2 <USBHS_IRQHandler+0xda>
    383e:	0307f713          	andi	a4,a5,48
    3842:	c745                	beqz	a4,38ea <USBHS_IRQHandler+0xd2>
    3844:	02000693          	li	a3,32
    3848:	00d71a63          	bne	a4,a3,385c <USBHS_IRQHandler+0x44>
    384c:	03f7f793          	andi	a5,a5,63
    3850:	02e78163          	beq	a5,a4,3872 <USBHS_IRQHandler+0x5a>
    3854:	02100713          	li	a4,33
    3858:	06e78863          	beq	a5,a4,38c8 <USBHS_IRQHandler+0xb0>
    385c:	400237b7          	lui	a5,0x40023
    3860:	4709                	li	a4,2
    3862:	40e78523          	sb	a4,1034(a5) # 4002340a <_eusrstack+0x2001b40a>
    3866:	40078793          	addi	a5,a5,1024
    386a:	4432                	lw	s0,12(sp)
    386c:	0141                	addi	sp,sp,16
    386e:	30200073          	mret
    3872:	8ac1d783          	lhu	a5,-1876(gp) # 2000012c <ctrl_len>
    3876:	07c2                	slli	a5,a5,0x10
    3878:	83c1                	srli	a5,a5,0x10
    387a:	c785                	beqz	a5,38a2 <USBHS_IRQHandler+0x8a>
    387c:	d73ff0ef          	jal	ra,35ee <copy_ctrl_data>
    3880:	0542                	slli	a0,a0,0x10
    3882:	8141                	srli	a0,a0,0x10
    3884:	0ca41c23          	sh	a0,216(s0)
    3888:	0da44783          	lbu	a5,218(s0)
    388c:	0087c793          	xori	a5,a5,8
    3890:	0cf40d23          	sb	a5,218(s0)
    3894:	0da44783          	lbu	a5,218(s0)
    3898:	0fc7f793          	andi	a5,a5,252
    389c:	0cf40d23          	sb	a5,218(s0)
    38a0:	bf75                	j	385c <USBHS_IRQHandler+0x44>
    38a2:	303c                	lbu	a5,3(s0)
    38a4:	8b41c703          	lbu	a4,-1868(gp) # 20000134 <dev_addr>
    38a8:	0807f793          	andi	a5,a5,128
    38ac:	8fd9                	or	a5,a5,a4
    38ae:	b03c                	sb	a5,3(s0)
    38b0:	0da44783          	lbu	a5,218(s0)
    38b4:	0fc7f793          	andi	a5,a5,252
    38b8:	0027e793          	ori	a5,a5,2
    38bc:	0cf40d23          	sb	a5,218(s0)
    38c0:	47a1                	li	a5,8
    38c2:	0cf40da3          	sb	a5,219(s0)
    38c6:	bf59                	j	385c <USBHS_IRQHandler+0x44>
    38c8:	0de44783          	lbu	a5,222(s0)
    38cc:	0fc7f793          	andi	a5,a5,252
    38d0:	0027e793          	ori	a5,a5,2
    38d4:	0cf40f23          	sb	a5,222(s0)
    38d8:	0de44783          	lbu	a5,222(s0)
    38dc:	0087c793          	xori	a5,a5,8
    38e0:	0cf40f23          	sb	a5,222(s0)
    38e4:	8c018823          	sb	zero,-1840(gp) # 20000150 <ep1_busy>
    38e8:	bf95                	j	385c <USBHS_IRQHandler+0x44>
    38ea:	0c041c23          	sh	zero,216(s0)
    38ee:	47a1                	li	a5,8
    38f0:	b775                	j	389c <USBHS_IRQHandler+0x84>
    38f2:	02077793          	andi	a5,a4,32
    38f6:	28078e63          	beqz	a5,3b92 <USBHS_IRQHandler+0x37a>
    38fa:	47a9                	li	a5,10
    38fc:	0cf40d23          	sb	a5,218(s0)
    3900:	0cf40da3          	sb	a5,219(s0)
    3904:	8cc18793          	addi	a5,gp,-1844 # 2000014c <diag_setup_count>
    3908:	4398                	lw	a4,0(a5)
    390a:	200015b7          	lui	a1,0x20001
    390e:	45058693          	addi	a3,a1,1104 # 20001450 <ep0_buf>
    3912:	0705                	addi	a4,a4,1
    3914:	c398                	sw	a4,0(a5)
    3916:	229c                	lbu	a5,0(a3)
    3918:	8d818313          	addi	t1,gp,-1832 # 20000158 <setup_type>
    391c:	00f30023          	sb	a5,0(t1)
    3920:	329c                	lbu	a5,1(a3)
    3922:	8d318613          	addi	a2,gp,-1837 # 20000153 <setup_code>
    3926:	a21c                	sb	a5,0(a2)
    3928:	22be                	lhu	a5,2(a3)
    392a:	8da18893          	addi	a7,gp,-1830 # 2000015a <setup_value>
    392e:	22da                	lhu	a4,4(a3)
    3930:	00f89023          	sh	a5,0(a7)
    3934:	8d418793          	addi	a5,gp,-1836 # 20000154 <setup_index>
    3938:	a39a                	sh	a4,0(a5)
    393a:	22fa                	lhu	a4,6(a3)
    393c:	8d618e13          	addi	t3,gp,-1834 # 20000156 <setup_length>
    3940:	00ee1023          	sh	a4,0(t3)
    3944:	00034703          	lbu	a4,0(t1)
    3948:	45058593          	addi	a1,a1,1104
    394c:	0ff77713          	andi	a4,a4,255
    3950:	8ae18ea3          	sb	a4,-1859(gp) # 2000013d <diag_last_req_type>
    3954:	2218                	lbu	a4,0(a2)
    3956:	8d818413          	addi	s0,gp,-1832 # 20000158 <setup_type>
    395a:	0ff77713          	andi	a4,a4,255
    395e:	8ae18e23          	sb	a4,-1860(gp) # 2000013c <diag_last_req>
    3962:	0008d703          	lhu	a4,0(a7)
    3966:	8da18513          	addi	a0,gp,-1830 # 2000015a <setup_value>
    396a:	0742                	slli	a4,a4,0x10
    396c:	8341                	srli	a4,a4,0x10
    396e:	8ae19f23          	sh	a4,-1858(gp) # 2000013e <diag_last_value>
    3972:	239e                	lhu	a5,0(a5)
    3974:	8d618813          	addi	a6,gp,-1834 # 20000156 <setup_length>
    3978:	07c2                	slli	a5,a5,0x10
    397a:	83c1                	srli	a5,a5,0x10
    397c:	8af19b23          	sh	a5,-1866(gp) # 20000136 <diag_last_index>
    3980:	000e5783          	lhu	a5,0(t3)
    3984:	07c2                	slli	a5,a5,0x10
    3986:	83c1                	srli	a5,a5,0x10
    3988:	8af19d23          	sh	a5,-1862(gp) # 2000013a <diag_last_length>
    398c:	8ac18e13          	addi	t3,gp,-1876 # 2000012c <ctrl_len>
    3990:	000e1023          	sh	zero,0(t3)
    3994:	00034303          	lbu	t1,0(t1)
    3998:	8a01a823          	sw	zero,-1872(gp) # 20000130 <ctrl_ptr>
    399c:	06037313          	andi	t1,t1,96
    39a0:	8ac18793          	addi	a5,gp,-1876 # 2000012c <ctrl_len>
    39a4:	8b018713          	addi	a4,gp,-1872 # 20000130 <ctrl_ptr>
    39a8:	16031763          	bnez	t1,3b16 <USBHS_IRQHandler+0x2fe>
    39ac:	2214                	lbu	a3,0(a2)
    39ae:	462d                	li	a2,11
    39b0:	0ff6f693          	andi	a3,a3,255
    39b4:	18d66363          	bltu	a2,a3,3b3a <USBHS_IRQHandler+0x322>
    39b8:	6619                	lui	a2,0x6
    39ba:	068a                	slli	a3,a3,0x2
    39bc:	e2060613          	addi	a2,a2,-480 # 5e20 <_read+0x7c8>
    39c0:	96b2                	add	a3,a3,a2
    39c2:	4294                	lw	a3,0(a3)
    39c4:	8682                	jr	a3
    39c6:	2116                	lhu	a3,0(a0)
    39c8:	4885                	li	a7,1
    39ca:	00079023          	sh	zero,0(a5)
    39ce:	06c2                	slli	a3,a3,0x10
    39d0:	82c1                	srli	a3,a3,0x10
    39d2:	0086d593          	srli	a1,a3,0x8
    39d6:	05159b63          	bne	a1,a7,3a2c <USBHS_IRQHandler+0x214>
    39da:	6699                	lui	a3,0x6
    39dc:	e9c68693          	addi	a3,a3,-356 # 5e9c <hs_device_desc>
    39e0:	c314                	sw	a3,0(a4)
    39e2:	46c9                	li	a3,18
    39e4:	a396                	sh	a3,0(a5)
    39e6:	2396                	lhu	a3,0(a5)
    39e8:	00085603          	lhu	a2,0(a6)
    39ec:	00d67763          	bgeu	a2,a3,39fa <USBHS_IRQHandler+0x1e2>
    39f0:	00085683          	lhu	a3,0(a6)
    39f4:	06c2                	slli	a3,a3,0x10
    39f6:	82c1                	srli	a3,a3,0x10
    39f8:	a396                	sh	a3,0(a5)
    39fa:	431c                	lw	a5,0(a4)
    39fc:	12078f63          	beqz	a5,3b3a <USBHS_IRQHandler+0x322>
    3a00:	befff0ef          	jal	ra,35ee <copy_ctrl_data>
    3a04:	2018                	lbu	a4,0(s0)
    3a06:	400237b7          	lui	a5,0x40023
    3a0a:	40078793          	addi	a5,a5,1024 # 40023400 <_eusrstack+0x2001b400>
    3a0e:	0762                	slli	a4,a4,0x18
    3a10:	8761                	srai	a4,a4,0x18
    3a12:	16075a63          	bgez	a4,3b86 <USBHS_IRQHandler+0x36e>
    3a16:	0542                	slli	a0,a0,0x10
    3a18:	8141                	srli	a0,a0,0x10
    3a1a:	4721                	li	a4,8
    3a1c:	0ca79c23          	sh	a0,216(a5)
    3a20:	0ce78d23          	sb	a4,218(a5)
    3a24:	4729                	li	a4,10
    3a26:	0ce78da3          	sb	a4,219(a5)
    3a2a:	aa39                	j	3b48 <USBHS_IRQHandler+0x330>
    3a2c:	4509                	li	a0,2
    3a2e:	0ff5f613          	andi	a2,a1,255
    3a32:	00a59963          	bne	a1,a0,3a44 <USBHS_IRQHandler+0x22c>
    3a36:	6699                	lui	a3,0x6
    3a38:	e7868693          	addi	a3,a3,-392 # 5e78 <hs_config_desc>
    3a3c:	c314                	sw	a3,0(a4)
    3a3e:	02200693          	li	a3,34
    3a42:	b74d                	j	39e4 <USBHS_IRQHandler+0x1cc>
    3a44:	02100593          	li	a1,33
    3a48:	00b61863          	bne	a2,a1,3a58 <USBHS_IRQHandler+0x240>
    3a4c:	6699                	lui	a3,0x6
    3a4e:	e8a68693          	addi	a3,a3,-374 # 5e8a <hs_config_desc+0x12>
    3a52:	c314                	sw	a3,0(a4)
    3a54:	46a5                	li	a3,9
    3a56:	b779                	j	39e4 <USBHS_IRQHandler+0x1cc>
    3a58:	02200593          	li	a1,34
    3a5c:	00b61963          	bne	a2,a1,3a6e <USBHS_IRQHandler+0x256>
    3a60:	6699                	lui	a3,0x6
    3a62:	ec068693          	addi	a3,a3,-320 # 5ec0 <hs_mouse_report_desc>
    3a66:	c314                	sw	a3,0(a4)
    3a68:	03400693          	li	a3,52
    3a6c:	bfa5                	j	39e4 <USBHS_IRQHandler+0x1cc>
    3a6e:	4599                	li	a1,6
    3a70:	00b61863          	bne	a2,a1,3a80 <USBHS_IRQHandler+0x268>
    3a74:	6699                	lui	a3,0x6
    3a76:	f1068693          	addi	a3,a3,-240 # 5f10 <hs_qualifier_desc>
    3a7a:	c314                	sw	a3,0(a4)
    3a7c:	46a9                	li	a3,10
    3a7e:	b79d                	j	39e4 <USBHS_IRQHandler+0x1cc>
    3a80:	458d                	li	a1,3
    3a82:	f6b612e3          	bne	a2,a1,39e6 <USBHS_IRQHandler+0x1ce>
    3a86:	0ff6f693          	andi	a3,a3,255
    3a8a:	e691                	bnez	a3,3a96 <USBHS_IRQHandler+0x27e>
    3a8c:	87818693          	addi	a3,gp,-1928 # 200000f8 <hs_lang_desc>
    3a90:	c314                	sw	a3,0(a4)
    3a92:	4691                	li	a3,4
    3a94:	bf81                	j	39e4 <USBHS_IRQHandler+0x1cc>
    3a96:	01169863          	bne	a3,a7,3aa6 <USBHS_IRQHandler+0x28e>
    3a9a:	6699                	lui	a3,0x6
    3a9c:	eb068693          	addi	a3,a3,-336 # 5eb0 <hs_manu_desc>
    3aa0:	c314                	sw	a3,0(a4)
    3aa2:	46b9                	li	a3,14
    3aa4:	b781                	j	39e4 <USBHS_IRQHandler+0x1cc>
    3aa6:	00a69863          	bne	a3,a0,3ab6 <USBHS_IRQHandler+0x29e>
    3aaa:	6699                	lui	a3,0x6
    3aac:	ef468693          	addi	a3,a3,-268 # 5ef4 <hs_prod_desc>
    3ab0:	c314                	sw	a3,0(a4)
    3ab2:	46e9                	li	a3,26
    3ab4:	bf05                	j	39e4 <USBHS_IRQHandler+0x1cc>
    3ab6:	f2c698e3          	bne	a3,a2,39e6 <USBHS_IRQHandler+0x1ce>
    3aba:	6699                	lui	a3,0x6
    3abc:	f1c68693          	addi	a3,a3,-228 # 5f1c <hs_ser_desc>
    3ac0:	bf6d                	j	3a7a <USBHS_IRQHandler+0x262>
    3ac2:	211e                	lhu	a5,0(a0)
    3ac4:	07f7f793          	andi	a5,a5,127
    3ac8:	8af18a23          	sb	a5,-1868(gp) # 20000134 <dev_addr>
    3acc:	8c418793          	addi	a5,gp,-1852 # 20000144 <diag_set_addr_count>
    3ad0:	4398                	lw	a4,0(a5)
    3ad2:	0705                	addi	a4,a4,1
    3ad4:	c398                	sw	a4,0(a5)
    3ad6:	4501                	li	a0,0
    3ad8:	b735                	j	3a04 <USBHS_IRQHandler+0x1ec>
    3ada:	8b51c783          	lbu	a5,-1867(gp) # 20000135 <dev_config>
    3ade:	a19c                	sb	a5,0(a1)
    3ae0:	4505                	li	a0,1
    3ae2:	b70d                	j	3a04 <USBHS_IRQHandler+0x1ec>
    3ae4:	211e                	lhu	a5,0(a0)
    3ae6:	0ff7f793          	andi	a5,a5,255
    3aea:	8af18aa3          	sb	a5,-1867(gp) # 20000135 <dev_config>
    3aee:	8c818793          	addi	a5,gp,-1848 # 20000148 <diag_set_config_count>
    3af2:	4398                	lw	a4,0(a5)
    3af4:	0705                	addi	a4,a4,1
    3af6:	c398                	sw	a4,0(a5)
    3af8:	8c018823          	sb	zero,-1840(gp) # 20000150 <ep1_busy>
    3afc:	4709                	li	a4,2
    3afe:	400237b7          	lui	a5,0x40023
    3b02:	4ce78f23          	sb	a4,1246(a5) # 400234de <_eusrstack+0x2001b4de>
    3b06:	bfc1                	j	3ad6 <USBHS_IRQHandler+0x2be>
    3b08:	00058023          	sb	zero,0(a1)
    3b0c:	bfd1                	j	3ae0 <USBHS_IRQHandler+0x2c8>
    3b0e:	00059023          	sh	zero,0(a1)
    3b12:	4509                	li	a0,2
    3b14:	bdc5                	j	3a04 <USBHS_IRQHandler+0x1ec>
    3b16:	201c                	lbu	a5,0(s0)
    3b18:	02000713          	li	a4,32
    3b1c:	0607f793          	andi	a5,a5,96
    3b20:	00e79d63          	bne	a5,a4,3b3a <USBHS_IRQHandler+0x322>
    3b24:	221c                	lbu	a5,0(a2)
    3b26:	470d                	li	a4,3
    3b28:	0ff7f793          	andi	a5,a5,255
    3b2c:	04e78a63          	beq	a5,a4,3b80 <USBHS_IRQHandler+0x368>
    3b30:	02f76163          	bltu	a4,a5,3b52 <USBHS_IRQHandler+0x33a>
    3b34:	4709                	li	a4,2
    3b36:	04e78163          	beq	a5,a4,3b78 <USBHS_IRQHandler+0x360>
    3b3a:	400237b7          	lui	a5,0x40023
    3b3e:	472d                	li	a4,11
    3b40:	4ce78d23          	sb	a4,1242(a5) # 400234da <_eusrstack+0x2001b4da>
    3b44:	4ce78da3          	sb	a4,1243(a5)
    3b48:	400237b7          	lui	a5,0x40023
    3b4c:	02000713          	li	a4,32
    3b50:	bb09                	j	3862 <USBHS_IRQHandler+0x4a>
    3b52:	4729                	li	a4,10
    3b54:	00e78c63          	beq	a5,a4,3b6c <USBHS_IRQHandler+0x354>
    3b58:	472d                	li	a4,11
    3b5a:	fee790e3          	bne	a5,a4,3b3a <USBHS_IRQHandler+0x322>
    3b5e:	0008d783          	lhu	a5,0(a7)
    3b62:	0ff7f793          	andi	a5,a5,255
    3b66:	8cf18923          	sb	a5,-1838(gp) # 20000152 <hid_protocol>
    3b6a:	b7b5                	j	3ad6 <USBHS_IRQHandler+0x2be>
    3b6c:	0008d783          	lhu	a5,0(a7)
    3b70:	83a1                	srli	a5,a5,0x8
    3b72:	8cf188a3          	sb	a5,-1839(gp) # 20000151 <hid_idle>
    3b76:	b785                	j	3ad6 <USBHS_IRQHandler+0x2be>
    3b78:	8d11c783          	lbu	a5,-1839(gp) # 20000151 <hid_idle>
    3b7c:	a29c                	sb	a5,0(a3)
    3b7e:	b78d                	j	3ae0 <USBHS_IRQHandler+0x2c8>
    3b80:	8d21c783          	lbu	a5,-1838(gp) # 20000152 <hid_protocol>
    3b84:	bfe5                	j	3b7c <USBHS_IRQHandler+0x364>
    3b86:	0c079c23          	sh	zero,216(a5) # 400230d8 <_eusrstack+0x2001b0d8>
    3b8a:	4721                	li	a4,8
    3b8c:	0ce78d23          	sb	a4,218(a5)
    3b90:	bd59                	j	3a26 <USBHS_IRQHandler+0x20e>
    3b92:	00177793          	andi	a5,a4,1
    3b96:	c38d                	beqz	a5,3bb8 <USBHS_IRQHandler+0x3a0>
    3b98:	8c018793          	addi	a5,gp,-1856 # 20000140 <diag_reset_count>
    3b9c:	4398                	lw	a4,0(a5)
    3b9e:	0705                	addi	a4,a4,1
    3ba0:	c398                	sw	a4,0(a5)
    3ba2:	8a018a23          	sb	zero,-1868(gp) # 20000134 <dev_addr>
    3ba6:	8a018aa3          	sb	zero,-1867(gp) # 20000135 <dev_config>
    3baa:	000401a3          	sb	zero,3(s0)
    3bae:	9f1ff0ef          	jal	ra,359e <hs_endpoint_init>
    3bb2:	4785                	li	a5,1
    3bb4:	a43c                	sb	a5,10(s0)
    3bb6:	b955                	j	386a <USBHS_IRQHandler+0x52>
    3bb8:	a438                	sb	a4,10(s0)
    3bba:	b945                	j	386a <USBHS_IRQHandler+0x52>

00003bbc <ADC1_2_IRQHandler>:
    3bbc:	a001                	j	3bbc <ADC1_2_IRQHandler>

00003bbe <handle_reset>:
    3bbe:	1fffd197          	auipc	gp,0x1fffd
    3bc2:	cc218193          	addi	gp,gp,-830 # 20000880 <__global_pointer$>
    3bc6:	20004117          	auipc	sp,0x20004
    3bca:	43a10113          	addi	sp,sp,1082 # 20008000 <_eusrstack>
    3bce:	00002517          	auipc	a0,0x2
    3bd2:	3f650513          	addi	a0,a0,1014 # 5fc4 <_data_lma>
    3bd6:	1fffc597          	auipc	a1,0x1fffc
    3bda:	42a58593          	addi	a1,a1,1066 # 20000000 <_data_vma>
    3bde:	88018613          	addi	a2,gp,-1920 # 20000100 <_edata>
    3be2:	00c5fa63          	bgeu	a1,a2,3bf6 <handle_reset+0x38>
    3be6:	00052283          	lw	t0,0(a0)
    3bea:	0055a023          	sw	t0,0(a1)
    3bee:	0511                	addi	a0,a0,4
    3bf0:	0591                	addi	a1,a1,4
    3bf2:	fec5eae3          	bltu	a1,a2,3be6 <handle_reset+0x28>
    3bf6:	88018513          	addi	a0,gp,-1920 # 20000100 <_edata>
    3bfa:	1fffe597          	auipc	a1,0x1fffe
    3bfe:	8da58593          	addi	a1,a1,-1830 # 200014d4 <_ebss>
    3c02:	00b57763          	bgeu	a0,a1,3c10 <handle_reset+0x52>
    3c06:	00052023          	sw	zero,0(a0)
    3c0a:	0511                	addi	a0,a0,4
    3c0c:	feb56de3          	bltu	a0,a1,3c06 <handle_reset+0x48>
    3c10:	42fd                	li	t0,31
    3c12:	bc029073          	csrw	0xbc0,t0
    3c16:	42ad                	li	t0,11
    3c18:	80429073          	csrw	0x804,t0
    3c1c:	000062b7          	lui	t0,0x6
    3c20:	08828293          	addi	t0,t0,136 # 6088 <_data_lma+0xc4>
    3c24:	30029073          	csrw	mstatus,t0
    3c28:	ffffc297          	auipc	t0,0xffffc
    3c2c:	3dc28293          	addi	t0,t0,988 # 4 <_einit>
    3c30:	0032e293          	ori	t0,t0,3
    3c34:	30529073          	csrw	mtvec,t0
    3c38:	faeff0ef          	jal	ra,33e6 <SystemInit>
    3c3c:	fffff297          	auipc	t0,0xfffff
    3c40:	32a28293          	addi	t0,t0,810 # 2f66 <main>
    3c44:	34129073          	csrw	mepc,t0
    3c48:	30200073          	mret

00003c4c <DBGMCU_GetCHIPID>:
    3c4c:	1ffff7b7          	lui	a5,0x1ffff
    3c50:	7047a503          	lw	a0,1796(a5) # 1ffff704 <_data_lma+0x1fff9740>
    3c54:	8082                	ret

00003c56 <GPIO_Init>:
    3c56:	459c                	lw	a5,8(a1)
    3c58:	0107f713          	andi	a4,a5,16
    3c5c:	00f7f813          	andi	a6,a5,15
    3c60:	c701                	beqz	a4,3c68 <GPIO_Init+0x12>
    3c62:	41d8                	lw	a4,4(a1)
    3c64:	00e86833          	or	a6,a6,a4
    3c68:	218e                	lhu	a1,0(a1)
    3c6a:	0ff5f713          	andi	a4,a1,255
    3c6e:	c339                	beqz	a4,3cb4 <GPIO_Init+0x5e>
    3c70:	4118                	lw	a4,0(a0)
    3c72:	4681                	li	a3,0
    3c74:	4e85                	li	t4,1
    3c76:	4f3d                	li	t5,15
    3c78:	02800f93          	li	t6,40
    3c7c:	04800293          	li	t0,72
    3c80:	4e21                	li	t3,8
    3c82:	00de9633          	sll	a2,t4,a3
    3c86:	00c5f8b3          	and	a7,a1,a2
    3c8a:	03161163          	bne	a2,a7,3cac <GPIO_Init+0x56>
    3c8e:	00269893          	slli	a7,a3,0x2
    3c92:	011f1333          	sll	t1,t5,a7
    3c96:	fff34313          	not	t1,t1
    3c9a:	00e37733          	and	a4,t1,a4
    3c9e:	011818b3          	sll	a7,a6,a7
    3ca2:	00e8e733          	or	a4,a7,a4
    3ca6:	05f79f63          	bne	a5,t6,3d04 <GPIO_Init+0xae>
    3caa:	c950                	sw	a2,20(a0)
    3cac:	0685                	addi	a3,a3,1
    3cae:	fdc69ae3          	bne	a3,t3,3c82 <GPIO_Init+0x2c>
    3cb2:	c118                	sw	a4,0(a0)
    3cb4:	0ff00713          	li	a4,255
    3cb8:	04b77563          	bgeu	a4,a1,3d02 <GPIO_Init+0xac>
    3cbc:	4154                	lw	a3,4(a0)
    3cbe:	4621                	li	a2,8
    3cc0:	4e85                	li	t4,1
    3cc2:	4f3d                	li	t5,15
    3cc4:	02800f93          	li	t6,40
    3cc8:	04800293          	li	t0,72
    3ccc:	4e41                	li	t3,16
    3cce:	00ce98b3          	sll	a7,t4,a2
    3cd2:	0115f733          	and	a4,a1,a7
    3cd6:	02e89263          	bne	a7,a4,3cfa <GPIO_Init+0xa4>
    3cda:	00261713          	slli	a4,a2,0x2
    3cde:	1701                	addi	a4,a4,-32
    3ce0:	00ef1333          	sll	t1,t5,a4
    3ce4:	fff34313          	not	t1,t1
    3ce8:	00d376b3          	and	a3,t1,a3
    3cec:	00e81733          	sll	a4,a6,a4
    3cf0:	8ed9                	or	a3,a3,a4
    3cf2:	01f79d63          	bne	a5,t6,3d0c <GPIO_Init+0xb6>
    3cf6:	01152a23          	sw	a7,20(a0)
    3cfa:	0605                	addi	a2,a2,1
    3cfc:	fdc619e3          	bne	a2,t3,3cce <GPIO_Init+0x78>
    3d00:	c154                	sw	a3,4(a0)
    3d02:	8082                	ret
    3d04:	fa5794e3          	bne	a5,t0,3cac <GPIO_Init+0x56>
    3d08:	c910                	sw	a2,16(a0)
    3d0a:	b74d                	j	3cac <GPIO_Init+0x56>
    3d0c:	fe5797e3          	bne	a5,t0,3cfa <GPIO_Init+0xa4>
    3d10:	01152823          	sw	a7,16(a0)
    3d14:	b7dd                	j	3cfa <GPIO_Init+0xa4>

00003d16 <NVIC_Init>:
    3d16:	8dc1a703          	lw	a4,-1828(gp) # 2000015c <NVIC_Priority_Group>
    3d1a:	4789                	li	a5,2
    3d1c:	2110                	lbu	a2,0(a0)
    3d1e:	02f71163          	bne	a4,a5,3d40 <NVIC_Init+0x2a>
    3d22:	3114                	lbu	a3,1(a0)
    3d24:	478d                	li	a5,3
    3d26:	00d7ed63          	bltu	a5,a3,3d40 <NVIC_Init+0x2a>
    3d2a:	213c                	lbu	a5,2(a0)
    3d2c:	069a                	slli	a3,a3,0x6
    3d2e:	e000e737          	lui	a4,0xe000e
    3d32:	0796                	slli	a5,a5,0x5
    3d34:	8fd5                	or	a5,a5,a3
    3d36:	0ff7f793          	andi	a5,a5,255
    3d3a:	9732                	add	a4,a4,a2
    3d3c:	40f70023          	sb	a5,1024(a4) # e000e400 <_eusrstack+0xc0006400>
    3d40:	4154                	lw	a3,4(a0)
    3d42:	4705                	li	a4,1
    3d44:	00565793          	srli	a5,a2,0x5
    3d48:	00c71733          	sll	a4,a4,a2
    3d4c:	ca89                	beqz	a3,3d5e <NVIC_Init+0x48>
    3d4e:	04078793          	addi	a5,a5,64
    3d52:	078a                	slli	a5,a5,0x2
    3d54:	e000e6b7          	lui	a3,0xe000e
    3d58:	97b6                	add	a5,a5,a3
    3d5a:	c398                	sw	a4,0(a5)
    3d5c:	8082                	ret
    3d5e:	06078793          	addi	a5,a5,96
    3d62:	e000e6b7          	lui	a3,0xe000e
    3d66:	078a                	slli	a5,a5,0x2
    3d68:	97b6                	add	a5,a5,a3
    3d6a:	c398                	sw	a4,0(a5)
    3d6c:	0000100f          	fence.i
    3d70:	8082                	ret

00003d72 <RCC_GetClocksFreq>:
    3d72:	40021737          	lui	a4,0x40021
    3d76:	435c                	lw	a5,4(a4)
    3d78:	4691                	li	a3,4
    3d7a:	8bb1                	andi	a5,a5,12
    3d7c:	00d78563          	beq	a5,a3,3d86 <RCC_GetClocksFreq+0x14>
    3d80:	46a1                	li	a3,8
    3d82:	06d78263          	beq	a5,a3,3de6 <RCC_GetClocksFreq+0x74>
    3d86:	007a17b7          	lui	a5,0x7a1
    3d8a:	20078793          	addi	a5,a5,512 # 7a1200 <_data_lma+0x79b23c>
    3d8e:	c11c                	sw	a5,0(a0)
    3d90:	40021637          	lui	a2,0x40021
    3d94:	425c                	lw	a5,4(a2)
    3d96:	20000737          	lui	a4,0x20000
    3d9a:	01070713          	addi	a4,a4,16 # 20000010 <APBAHBPrescTable>
    3d9e:	8391                	srli	a5,a5,0x4
    3da0:	8bbd                	andi	a5,a5,15
    3da2:	97ba                	add	a5,a5,a4
    3da4:	2394                	lbu	a3,0(a5)
    3da6:	411c                	lw	a5,0(a0)
    3da8:	00d7d7b3          	srl	a5,a5,a3
    3dac:	c15c                	sw	a5,4(a0)
    3dae:	4254                	lw	a3,4(a2)
    3db0:	82a1                	srli	a3,a3,0x8
    3db2:	8a9d                	andi	a3,a3,7
    3db4:	96ba                	add	a3,a3,a4
    3db6:	2294                	lbu	a3,0(a3)
    3db8:	00d7d6b3          	srl	a3,a5,a3
    3dbc:	c514                	sw	a3,8(a0)
    3dbe:	4254                	lw	a3,4(a2)
    3dc0:	82ad                	srli	a3,a3,0xb
    3dc2:	8a9d                	andi	a3,a3,7
    3dc4:	9736                	add	a4,a4,a3
    3dc6:	2318                	lbu	a4,0(a4)
    3dc8:	00e7d7b3          	srl	a5,a5,a4
    3dcc:	c55c                	sw	a5,12(a0)
    3dce:	4258                	lw	a4,4(a2)
    3dd0:	8339                	srli	a4,a4,0xe
    3dd2:	00377693          	andi	a3,a4,3
    3dd6:	80418713          	addi	a4,gp,-2044 # 20000084 <ADCPrescTable>
    3dda:	9736                	add	a4,a4,a3
    3ddc:	2318                	lbu	a4,0(a4)
    3dde:	02e7d7b3          	divu	a5,a5,a4
    3de2:	c91c                	sw	a5,16(a0)
    3de4:	8082                	ret
    3de6:	435c                	lw	a5,4(a4)
    3de8:	4358                	lw	a4,4(a4)
    3dea:	66c1                	lui	a3,0x10
    3dec:	83c9                	srli	a5,a5,0x12
    3dee:	8f75                	and	a4,a4,a3
    3df0:	1ffff6b7          	lui	a3,0x1ffff
    3df4:	70c6a683          	lw	a3,1804(a3) # 1ffff70c <_data_lma+0x1fff9748>
    3df8:	8bbd                	andi	a5,a5,15
    3dfa:	0789                	addi	a5,a5,2
    3dfc:	01169613          	slli	a2,a3,0x11
    3e00:	00064863          	bltz	a2,3e10 <RCC_GetClocksFreq+0x9e>
    3e04:	46c5                	li	a3,17
    3e06:	4601                	li	a2,0
    3e08:	02d79263          	bne	a5,a3,3e2c <RCC_GetClocksFreq+0xba>
    3e0c:	47c9                	li	a5,18
    3e0e:	a839                	j	3e2c <RCC_GetClocksFreq+0xba>
    3e10:	4689                	li	a3,2
    3e12:	02d78f63          	beq	a5,a3,3e50 <RCC_GetClocksFreq+0xde>
    3e16:	46bd                	li	a3,15
    3e18:	02d78e63          	beq	a5,a3,3e54 <RCC_GetClocksFreq+0xe2>
    3e1c:	46c1                	li	a3,16
    3e1e:	02d78e63          	beq	a5,a3,3e5a <RCC_GetClocksFreq+0xe8>
    3e22:	46c5                	li	a3,17
    3e24:	4601                	li	a2,0
    3e26:	00d79363          	bne	a5,a3,3e2c <RCC_GetClocksFreq+0xba>
    3e2a:	47c1                	li	a5,16
    3e2c:	ef1d                	bnez	a4,3e6a <RCC_GetClocksFreq+0xf8>
    3e2e:	40024737          	lui	a4,0x40024
    3e32:	80072703          	lw	a4,-2048(a4) # 40023800 <_eusrstack+0x2001b800>
    3e36:	8b41                	andi	a4,a4,16
    3e38:	c705                	beqz	a4,3e60 <RCC_GetClocksFreq+0xee>
    3e3a:	007a1737          	lui	a4,0x7a1
    3e3e:	20070713          	addi	a4,a4,512 # 7a1200 <_data_lma+0x79b23c>
    3e42:	02f707b3          	mul	a5,a4,a5
    3e46:	c11c                	sw	a5,0(a0)
    3e48:	d621                	beqz	a2,3d90 <RCC_GetClocksFreq+0x1e>
    3e4a:	411c                	lw	a5,0(a0)
    3e4c:	8385                	srli	a5,a5,0x1
    3e4e:	b781                	j	3d8e <RCC_GetClocksFreq+0x1c>
    3e50:	4601                	li	a2,0
    3e52:	bf6d                	j	3e0c <RCC_GetClocksFreq+0x9a>
    3e54:	4605                	li	a2,1
    3e56:	47b5                	li	a5,13
    3e58:	bfd1                	j	3e2c <RCC_GetClocksFreq+0xba>
    3e5a:	4601                	li	a2,0
    3e5c:	47bd                	li	a5,15
    3e5e:	b7f9                	j	3e2c <RCC_GetClocksFreq+0xba>
    3e60:	003d1737          	lui	a4,0x3d1
    3e64:	90070713          	addi	a4,a4,-1792 # 3d0900 <_data_lma+0x3ca93c>
    3e68:	bfe9                	j	3e42 <RCC_GetClocksFreq+0xd0>
    3e6a:	400215b7          	lui	a1,0x40021
    3e6e:	55d8                	lw	a4,44(a1)
    3e70:	00f71693          	slli	a3,a4,0xf
    3e74:	55d8                	lw	a4,44(a1)
    3e76:	0406df63          	bgez	a3,3ed4 <RCC_GetClocksFreq+0x162>
    3e7a:	8311                	srli	a4,a4,0x4
    3e7c:	8b3d                	andi	a4,a4,15
    3e7e:	00170693          	addi	a3,a4,1
    3e82:	007a1737          	lui	a4,0x7a1
    3e86:	20070713          	addi	a4,a4,512 # 7a1200 <_data_lma+0x79b23c>
    3e8a:	02d75733          	divu	a4,a4,a3
    3e8e:	c118                	sw	a4,0(a0)
    3e90:	55d4                	lw	a3,44(a1)
    3e92:	82a1                	srli	a3,a3,0x8
    3e94:	8abd                	andi	a3,a3,15
    3e96:	e28d                	bnez	a3,3eb8 <RCC_GetClocksFreq+0x146>
    3e98:	4695                	li	a3,5
    3e9a:	02d70733          	mul	a4,a4,a3
    3e9e:	8305                	srli	a4,a4,0x1
    3ea0:	c118                	sw	a4,0(a0)
    3ea2:	40021737          	lui	a4,0x40021
    3ea6:	5758                	lw	a4,44(a4)
    3ea8:	4114                	lw	a3,0(a0)
    3eaa:	8b3d                	andi	a4,a4,15
    3eac:	0705                	addi	a4,a4,1
    3eae:	02e6d733          	divu	a4,a3,a4
    3eb2:	c118                	sw	a4,0(a0)
    3eb4:	4118                	lw	a4,0(a0)
    3eb6:	b771                	j	3e42 <RCC_GetClocksFreq+0xd0>
    3eb8:	4585                	li	a1,1
    3eba:	00b69463          	bne	a3,a1,3ec2 <RCC_GetClocksFreq+0x150>
    3ebe:	46e5                	li	a3,25
    3ec0:	bfe9                	j	3e9a <RCC_GetClocksFreq+0x128>
    3ec2:	45bd                	li	a1,15
    3ec4:	00b69663          	bne	a3,a1,3ed0 <RCC_GetClocksFreq+0x15e>
    3ec8:	46d1                	li	a3,20
    3eca:	02e68733          	mul	a4,a3,a4
    3ece:	bfc9                	j	3ea0 <RCC_GetClocksFreq+0x12e>
    3ed0:	0689                	addi	a3,a3,2
    3ed2:	bfe5                	j	3eca <RCC_GetClocksFreq+0x158>
    3ed4:	8b3d                	andi	a4,a4,15
    3ed6:	00170693          	addi	a3,a4,1 # 40021001 <_eusrstack+0x20019001>
    3eda:	007a1737          	lui	a4,0x7a1
    3ede:	20070713          	addi	a4,a4,512 # 7a1200 <_data_lma+0x79b23c>
    3ee2:	02d75733          	divu	a4,a4,a3
    3ee6:	b7f1                	j	3eb2 <RCC_GetClocksFreq+0x140>

00003ee8 <RCC_AHBPeriphClockCmd>:
    3ee8:	c599                	beqz	a1,3ef6 <RCC_AHBPeriphClockCmd+0xe>
    3eea:	40021737          	lui	a4,0x40021
    3eee:	4b5c                	lw	a5,20(a4)
    3ef0:	8d5d                	or	a0,a0,a5
    3ef2:	cb48                	sw	a0,20(a4)
    3ef4:	8082                	ret
    3ef6:	400217b7          	lui	a5,0x40021
    3efa:	4bd8                	lw	a4,20(a5)
    3efc:	fff54513          	not	a0,a0
    3f00:	8d79                	and	a0,a0,a4
    3f02:	cbc8                	sw	a0,20(a5)
    3f04:	8082                	ret

00003f06 <RCC_APB2PeriphClockCmd>:
    3f06:	c599                	beqz	a1,3f14 <RCC_APB2PeriphClockCmd+0xe>
    3f08:	40021737          	lui	a4,0x40021
    3f0c:	4f1c                	lw	a5,24(a4)
    3f0e:	8d5d                	or	a0,a0,a5
    3f10:	cf08                	sw	a0,24(a4)
    3f12:	8082                	ret
    3f14:	400217b7          	lui	a5,0x40021
    3f18:	4f98                	lw	a4,24(a5)
    3f1a:	fff54513          	not	a0,a0
    3f1e:	8d79                	and	a0,a0,a4
    3f20:	cf88                	sw	a0,24(a5)
    3f22:	8082                	ret

00003f24 <RCC_APB1PeriphClockCmd>:
    3f24:	c599                	beqz	a1,3f32 <RCC_APB1PeriphClockCmd+0xe>
    3f26:	40021737          	lui	a4,0x40021
    3f2a:	4f5c                	lw	a5,28(a4)
    3f2c:	8d5d                	or	a0,a0,a5
    3f2e:	cf48                	sw	a0,28(a4)
    3f30:	8082                	ret
    3f32:	400217b7          	lui	a5,0x40021
    3f36:	4fd8                	lw	a4,28(a5)
    3f38:	fff54513          	not	a0,a0
    3f3c:	8d79                	and	a0,a0,a4
    3f3e:	cfc8                	sw	a0,28(a5)
    3f40:	8082                	ret

00003f42 <RCC_USBHSConfig>:
    3f42:	400217b7          	lui	a5,0x40021
    3f46:	57d8                	lw	a4,44(a5)
    3f48:	f90006b7          	lui	a3,0xf9000
    3f4c:	16fd                	addi	a3,a3,-1
    3f4e:	8f75                	and	a4,a4,a3
    3f50:	d7d8                	sw	a4,44(a5)
    3f52:	57d8                	lw	a4,44(a5)
    3f54:	0562                	slli	a0,a0,0x18
    3f56:	8d59                	or	a0,a0,a4
    3f58:	d7c8                	sw	a0,44(a5)
    3f5a:	8082                	ret

00003f5c <RCC_USBHSPLLCLKConfig>:
    3f5c:	400217b7          	lui	a5,0x40021
    3f60:	57d8                	lw	a4,44(a5)
    3f62:	f80006b7          	lui	a3,0xf8000
    3f66:	16fd                	addi	a3,a3,-1
    3f68:	8f75                	and	a4,a4,a3
    3f6a:	d7d8                	sw	a4,44(a5)
    3f6c:	57d8                	lw	a4,44(a5)
    3f6e:	056e                	slli	a0,a0,0x1b
    3f70:	8d59                	or	a0,a0,a4
    3f72:	d7c8                	sw	a0,44(a5)
    3f74:	8082                	ret

00003f76 <RCC_USBHSPLLCKREFCLKConfig>:
    3f76:	400217b7          	lui	a5,0x40021
    3f7a:	57d8                	lw	a4,44(a5)
    3f7c:	d00006b7          	lui	a3,0xd0000
    3f80:	16fd                	addi	a3,a3,-1
    3f82:	8f75                	and	a4,a4,a3
    3f84:	d7d8                	sw	a4,44(a5)
    3f86:	57d8                	lw	a4,44(a5)
    3f88:	0572                	slli	a0,a0,0x1c
    3f8a:	8d59                	or	a0,a0,a4
    3f8c:	d7c8                	sw	a0,44(a5)
    3f8e:	8082                	ret

00003f90 <RCC_USBHSPHYPLLALIVEcmd>:
    3f90:	c909                	beqz	a0,3fa2 <RCC_USBHSPHYPLLALIVEcmd+0x12>
    3f92:	40021737          	lui	a4,0x40021
    3f96:	575c                	lw	a5,44(a4)
    3f98:	400006b7          	lui	a3,0x40000
    3f9c:	8fd5                	or	a5,a5,a3
    3f9e:	d75c                	sw	a5,44(a4)
    3fa0:	8082                	ret
    3fa2:	400216b7          	lui	a3,0x40021
    3fa6:	56dc                	lw	a5,44(a3)
    3fa8:	c0000737          	lui	a4,0xc0000
    3fac:	177d                	addi	a4,a4,-1
    3fae:	8ff9                	and	a5,a5,a4
    3fb0:	d6dc                	sw	a5,44(a3)
    3fb2:	8082                	ret

00003fb4 <RCC_USBCLK48MConfig>:
    3fb4:	40021737          	lui	a4,0x40021
    3fb8:	575c                	lw	a5,44(a4)
    3fba:	057e                	slli	a0,a0,0x1f
    3fbc:	0786                	slli	a5,a5,0x1
    3fbe:	8385                	srli	a5,a5,0x1
    3fc0:	d75c                	sw	a5,44(a4)
    3fc2:	575c                	lw	a5,44(a4)
    3fc4:	8d5d                	or	a0,a0,a5
    3fc6:	d748                	sw	a0,44(a4)
    3fc8:	8082                	ret

00003fca <TIM_TimeBaseInit>:
    3fca:	1ffff737          	lui	a4,0x1ffff
    3fce:	70472703          	lw	a4,1796(a4) # 1ffff704 <_data_lma+0x1fff9740>
    3fd2:	211e                	lhu	a5,0(a0)
    3fd4:	4691                	li	a3,4
    3fd6:	8311                	srli	a4,a4,0x4
    3fd8:	8b3d                	andi	a4,a4,15
    3fda:	07c2                	slli	a5,a5,0x10
    3fdc:	1771                	addi	a4,a4,-4
    3fde:	83c1                	srli	a5,a5,0x10
    3fe0:	02e6e663          	bltu	a3,a4,400c <TIM_TimeBaseInit+0x42>
    3fe4:	40013737          	lui	a4,0x40013
    3fe8:	c0070693          	addi	a3,a4,-1024 # 40012c00 <_eusrstack+0x2000ac00>
    3fec:	00d50e63          	beq	a0,a3,4008 <TIM_TimeBaseInit+0x3e>
    3ff0:	40070713          	addi	a4,a4,1024
    3ff4:	00e50a63          	beq	a0,a4,4008 <TIM_TimeBaseInit+0x3e>
    3ff8:	40015737          	lui	a4,0x40015
    3ffc:	c0070693          	addi	a3,a4,-1024 # 40014c00 <_eusrstack+0x2000cc00>
    4000:	00d50463          	beq	a0,a3,4008 <TIM_TimeBaseInit+0x3e>
    4004:	00e51a63          	bne	a0,a4,4018 <TIM_TimeBaseInit+0x4e>
    4008:	6709                	lui	a4,0x2
    400a:	8fd9                	or	a5,a5,a4
    400c:	40013737          	lui	a4,0x40013
    4010:	c0070713          	addi	a4,a4,-1024 # 40012c00 <_eusrstack+0x2000ac00>
    4014:	04e50263          	beq	a0,a4,4058 <TIM_TimeBaseInit+0x8e>
    4018:	40000737          	lui	a4,0x40000
    401c:	02e50e63          	beq	a0,a4,4058 <TIM_TimeBaseInit+0x8e>
    4020:	40070713          	addi	a4,a4,1024 # 40000400 <_eusrstack+0x1fff8400>
    4024:	02e50a63          	beq	a0,a4,4058 <TIM_TimeBaseInit+0x8e>
    4028:	40001737          	lui	a4,0x40001
    402c:	80070693          	addi	a3,a4,-2048 # 40000800 <_eusrstack+0x1fff8800>
    4030:	02d50463          	beq	a0,a3,4058 <TIM_TimeBaseInit+0x8e>
    4034:	c0070713          	addi	a4,a4,-1024
    4038:	02e50063          	beq	a0,a4,4058 <TIM_TimeBaseInit+0x8e>
    403c:	40013737          	lui	a4,0x40013
    4040:	40070713          	addi	a4,a4,1024 # 40013400 <_eusrstack+0x2000b400>
    4044:	00e50a63          	beq	a0,a4,4058 <TIM_TimeBaseInit+0x8e>
    4048:	40015737          	lui	a4,0x40015
    404c:	c0070693          	addi	a3,a4,-1024 # 40014c00 <_eusrstack+0x2000cc00>
    4050:	00d50463          	beq	a0,a3,4058 <TIM_TimeBaseInit+0x8e>
    4054:	00e51863          	bne	a0,a4,4064 <TIM_TimeBaseInit+0x9a>
    4058:	f8f7f793          	andi	a5,a5,-113
    405c:	21ba                	lhu	a4,2(a1)
    405e:	07c2                	slli	a5,a5,0x10
    4060:	83c1                	srli	a5,a5,0x10
    4062:	8fd9                	or	a5,a5,a4
    4064:	40001737          	lui	a4,0x40001
    4068:	00e50c63          	beq	a0,a4,4080 <TIM_TimeBaseInit+0xb6>
    406c:	40070713          	addi	a4,a4,1024 # 40001400 <_eusrstack+0x1fff9400>
    4070:	00e50863          	beq	a0,a4,4080 <TIM_TimeBaseInit+0xb6>
    4074:	cff7f793          	andi	a5,a5,-769
    4078:	21fa                	lhu	a4,6(a1)
    407a:	07c2                	slli	a5,a5,0x10
    407c:	83c1                	srli	a5,a5,0x10
    407e:	8fd9                	or	a5,a5,a4
    4080:	a11e                	sh	a5,0(a0)
    4082:	21de                	lhu	a5,4(a1)
    4084:	b55e                	sh	a5,44(a0)
    4086:	219e                	lhu	a5,0(a1)
    4088:	b51e                	sh	a5,40(a0)
    408a:	400137b7          	lui	a5,0x40013
    408e:	c0078713          	addi	a4,a5,-1024 # 40012c00 <_eusrstack+0x2000ac00>
    4092:	00e50e63          	beq	a0,a4,40ae <TIM_TimeBaseInit+0xe4>
    4096:	40078793          	addi	a5,a5,1024
    409a:	00f50a63          	beq	a0,a5,40ae <TIM_TimeBaseInit+0xe4>
    409e:	400157b7          	lui	a5,0x40015
    40a2:	c0078713          	addi	a4,a5,-1024 # 40014c00 <_eusrstack+0x2000cc00>
    40a6:	00e50463          	beq	a0,a4,40ae <TIM_TimeBaseInit+0xe4>
    40aa:	00f51463          	bne	a0,a5,40b2 <TIM_TimeBaseInit+0xe8>
    40ae:	259c                	lbu	a5,8(a1)
    40b0:	b91e                	sh	a5,48(a0)
    40b2:	4785                	li	a5,1
    40b4:	a95e                	sh	a5,20(a0)
    40b6:	8082                	ret

000040b8 <TIM_Cmd>:
    40b8:	211e                	lhu	a5,0(a0)
    40ba:	c589                	beqz	a1,40c4 <TIM_Cmd+0xc>
    40bc:	0017e793          	ori	a5,a5,1
    40c0:	a11e                	sh	a5,0(a0)
    40c2:	8082                	ret
    40c4:	07c2                	slli	a5,a5,0x10
    40c6:	83c1                	srli	a5,a5,0x10
    40c8:	9bf9                	andi	a5,a5,-2
    40ca:	07c2                	slli	a5,a5,0x10
    40cc:	83c1                	srli	a5,a5,0x10
    40ce:	bfcd                	j	40c0 <TIM_Cmd+0x8>

000040d0 <TIM_ITConfig>:
    40d0:	255e                	lhu	a5,12(a0)
    40d2:	c601                	beqz	a2,40da <TIM_ITConfig+0xa>
    40d4:	8ddd                	or	a1,a1,a5
    40d6:	a54e                	sh	a1,12(a0)
    40d8:	8082                	ret
    40da:	fff5c593          	not	a1,a1
    40de:	8dfd                	and	a1,a1,a5
    40e0:	bfdd                	j	40d6 <TIM_ITConfig+0x6>

000040e2 <TIM_GetITStatus>:
    40e2:	291e                	lhu	a5,16(a0)
    40e4:	254a                	lhu	a0,12(a0)
    40e6:	8fed                	and	a5,a5,a1
    40e8:	0542                	slli	a0,a0,0x10
    40ea:	8141                	srli	a0,a0,0x10
    40ec:	c789                	beqz	a5,40f6 <TIM_GetITStatus+0x14>
    40ee:	8d6d                	and	a0,a0,a1
    40f0:	00a03533          	snez	a0,a0
    40f4:	8082                	ret
    40f6:	4501                	li	a0,0
    40f8:	8082                	ret

000040fa <TIM_ClearITPendingBit>:
    40fa:	fff5c593          	not	a1,a1
    40fe:	05c2                	slli	a1,a1,0x10
    4100:	81c1                	srli	a1,a1,0x10
    4102:	a90e                	sh	a1,16(a0)
    4104:	8082                	ret

00004106 <USART_Init>:
    4106:	8eafc2ef          	jal	t0,1f0 <__riscv_save_0>
    410a:	2916                	lhu	a3,16(a0)
    410c:	77f5                	lui	a5,0xffffd
    410e:	17fd                	addi	a5,a5,-1
    4110:	8ff5                	and	a5,a5,a3
    4112:	21f6                	lhu	a3,6(a1)
    4114:	25da                	lhu	a4,12(a1)
    4116:	7179                	addi	sp,sp,-48
    4118:	8fd5                	or	a5,a5,a3
    411a:	a91e                	sh	a5,16(a0)
    411c:	2556                	lhu	a3,12(a0)
    411e:	77fd                	lui	a5,0xfffff
    4120:	9f378793          	addi	a5,a5,-1549 # ffffe9f3 <_eusrstack+0xdfff69f3>
    4124:	8ff5                	and	a5,a5,a3
    4126:	21d6                	lhu	a3,4(a1)
    4128:	842a                	mv	s0,a0
    412a:	c62e                	sw	a1,12(sp)
    412c:	8fd5                	or	a5,a5,a3
    412e:	2596                	lhu	a3,8(a1)
    4130:	8fd5                	or	a5,a5,a3
    4132:	25b6                	lhu	a3,10(a1)
    4134:	8fd5                	or	a5,a5,a3
    4136:	a55e                	sh	a5,12(a0)
    4138:	295e                	lhu	a5,20(a0)
    413a:	07c2                	slli	a5,a5,0x10
    413c:	83c1                	srli	a5,a5,0x10
    413e:	cff7f793          	andi	a5,a5,-769
    4142:	8fd9                	or	a5,a5,a4
    4144:	a95e                	sh	a5,20(a0)
    4146:	0868                	addi	a0,sp,28
    4148:	c2bff0ef          	jal	ra,3d72 <RCC_GetClocksFreq>
    414c:	400147b7          	lui	a5,0x40014
    4150:	80078793          	addi	a5,a5,-2048 # 40013800 <_eusrstack+0x2000b800>
    4154:	45b2                	lw	a1,12(sp)
    4156:	02f41e63          	bne	s0,a5,4192 <USART_Init+0x8c>
    415a:	57a2                	lw	a5,40(sp)
    415c:	4765                	li	a4,25
    415e:	02e787b3          	mul	a5,a5,a4
    4162:	4198                	lw	a4,0(a1)
    4164:	06400693          	li	a3,100
    4168:	070a                	slli	a4,a4,0x2
    416a:	02e7d7b3          	divu	a5,a5,a4
    416e:	02d7d733          	divu	a4,a5,a3
    4172:	02d7f7b3          	remu	a5,a5,a3
    4176:	0712                	slli	a4,a4,0x4
    4178:	0792                	slli	a5,a5,0x4
    417a:	03278793          	addi	a5,a5,50
    417e:	02d7d7b3          	divu	a5,a5,a3
    4182:	8bbd                	andi	a5,a5,15
    4184:	8fd9                	or	a5,a5,a4
    4186:	07c2                	slli	a5,a5,0x10
    4188:	83c1                	srli	a5,a5,0x10
    418a:	a41e                	sh	a5,8(s0)
    418c:	6145                	addi	sp,sp,48
    418e:	886fc06f          	j	214 <__riscv_restore_0>
    4192:	5792                	lw	a5,36(sp)
    4194:	b7e1                	j	415c <USART_Init+0x56>

00004196 <USART_Cmd>:
    4196:	c591                	beqz	a1,41a2 <USART_Cmd+0xc>
    4198:	255e                	lhu	a5,12(a0)
    419a:	6709                	lui	a4,0x2
    419c:	8fd9                	or	a5,a5,a4
    419e:	a55e                	sh	a5,12(a0)
    41a0:	8082                	ret
    41a2:	255a                	lhu	a4,12(a0)
    41a4:	77f9                	lui	a5,0xffffe
    41a6:	17fd                	addi	a5,a5,-1
    41a8:	8ff9                	and	a5,a5,a4
    41aa:	bfd5                	j	419e <USART_Cmd+0x8>

000041ac <USART_ITConfig>:
    41ac:	0ff5f713          	andi	a4,a1,255
    41b0:	4785                	li	a5,1
    41b2:	8315                	srli	a4,a4,0x5
    41b4:	00b795b3          	sll	a1,a5,a1
    41b8:	00f71963          	bne	a4,a5,41ca <USART_ITConfig+0x1e>
    41bc:	00c50793          	addi	a5,a0,12
    41c0:	4398                	lw	a4,0(a5)
    41c2:	ce01                	beqz	a2,41da <USART_ITConfig+0x2e>
    41c4:	8dd9                	or	a1,a1,a4
    41c6:	c38c                	sw	a1,0(a5)
    41c8:	8082                	ret
    41ca:	4689                	li	a3,2
    41cc:	01450793          	addi	a5,a0,20
    41d0:	fed718e3          	bne	a4,a3,41c0 <USART_ITConfig+0x14>
    41d4:	01050793          	addi	a5,a0,16
    41d8:	b7e5                	j	41c0 <USART_ITConfig+0x14>
    41da:	fff5c593          	not	a1,a1
    41de:	8df9                	and	a1,a1,a4
    41e0:	b7dd                	j	41c6 <USART_ITConfig+0x1a>

000041e2 <USART_SendData>:
    41e2:	1ff5f593          	andi	a1,a1,511
    41e6:	a14e                	sh	a1,4(a0)
    41e8:	8082                	ret

000041ea <USART_ReceiveData>:
    41ea:	214a                	lhu	a0,4(a0)
    41ec:	1ff57513          	andi	a0,a0,511
    41f0:	8082                	ret

000041f2 <USART_GetFlagStatus>:
    41f2:	210a                	lhu	a0,0(a0)
    41f4:	8d6d                	and	a0,a0,a1
    41f6:	00a03533          	snez	a0,a0
    41fa:	8082                	ret

000041fc <USART_GetITStatus>:
    41fc:	0ff5f713          	andi	a4,a1,255
    4200:	4685                	li	a3,1
    4202:	8315                	srli	a4,a4,0x5
    4204:	00b697b3          	sll	a5,a3,a1
    4208:	02d71163          	bne	a4,a3,422a <USART_GetITStatus+0x2e>
    420c:	255a                	lhu	a4,12(a0)
    420e:	8ff9                	and	a5,a5,a4
    4210:	211a                	lhu	a4,0(a0)
    4212:	4501                	li	a0,0
    4214:	0742                	slli	a4,a4,0x10
    4216:	8341                	srli	a4,a4,0x10
    4218:	cb81                	beqz	a5,4228 <USART_GetITStatus+0x2c>
    421a:	4505                	li	a0,1
    421c:	81a1                	srli	a1,a1,0x8
    421e:	00b515b3          	sll	a1,a0,a1
    4222:	8f6d                	and	a4,a4,a1
    4224:	00e03533          	snez	a0,a4
    4228:	8082                	ret
    422a:	4689                	li	a3,2
    422c:	00d71463          	bne	a4,a3,4234 <USART_GetITStatus+0x38>
    4230:	291a                	lhu	a4,16(a0)
    4232:	bff1                	j	420e <USART_GetITStatus+0x12>
    4234:	295a                	lhu	a4,20(a0)
    4236:	bfe1                	j	420e <USART_GetITStatus+0x12>

00004238 <Delay_Init>:
    4238:	200007b7          	lui	a5,0x20000
    423c:	0807a783          	lw	a5,128(a5) # 20000080 <SystemCoreClock>
    4240:	007a1737          	lui	a4,0x7a1
    4244:	20070713          	addi	a4,a4,512 # 7a1200 <_data_lma+0x79b23c>
    4248:	02e7d7b3          	divu	a5,a5,a4
    424c:	0ff7f793          	andi	a5,a5,255
    4250:	8ef18123          	sb	a5,-1822(gp) # 20000162 <p_us>
    4254:	3e800713          	li	a4,1000
    4258:	02e787b3          	mul	a5,a5,a4
    425c:	8ef19023          	sh	a5,-1824(gp) # 20000160 <p_ms>
    4260:	8082                	ret

00004262 <Delay_Us>:
    4262:	e000f7b7          	lui	a5,0xe000f
    4266:	43d8                	lw	a4,4(a5)
    4268:	4681                	li	a3,0
    426a:	9b79                	andi	a4,a4,-2
    426c:	c3d8                	sw	a4,4(a5)
    426e:	8e21c703          	lbu	a4,-1822(gp) # 20000162 <p_us>
    4272:	02a70633          	mul	a2,a4,a0
    4276:	cb90                	sw	a2,16(a5)
    4278:	cbd4                	sw	a3,20(a5)
    427a:	4398                	lw	a4,0(a5)
    427c:	01076713          	ori	a4,a4,16
    4280:	c398                	sw	a4,0(a5)
    4282:	4398                	lw	a4,0(a5)
    4284:	02176713          	ori	a4,a4,33
    4288:	c398                	sw	a4,0(a5)
    428a:	43d8                	lw	a4,4(a5)
    428c:	8b05                	andi	a4,a4,1
    428e:	df75                	beqz	a4,428a <Delay_Us+0x28>
    4290:	4398                	lw	a4,0(a5)
    4292:	9b79                	andi	a4,a4,-2
    4294:	c398                	sw	a4,0(a5)
    4296:	8082                	ret

00004298 <Delay_Ms>:
    4298:	e000f7b7          	lui	a5,0xe000f
    429c:	43d8                	lw	a4,4(a5)
    429e:	4681                	li	a3,0
    42a0:	9b79                	andi	a4,a4,-2
    42a2:	c3d8                	sw	a4,4(a5)
    42a4:	8e01d703          	lhu	a4,-1824(gp) # 20000160 <p_ms>
    42a8:	02a70633          	mul	a2,a4,a0
    42ac:	cb90                	sw	a2,16(a5)
    42ae:	cbd4                	sw	a3,20(a5)
    42b0:	4398                	lw	a4,0(a5)
    42b2:	01076713          	ori	a4,a4,16
    42b6:	c398                	sw	a4,0(a5)
    42b8:	4398                	lw	a4,0(a5)
    42ba:	02176713          	ori	a4,a4,33
    42be:	c398                	sw	a4,0(a5)
    42c0:	43d8                	lw	a4,4(a5)
    42c2:	8b05                	andi	a4,a4,1
    42c4:	df75                	beqz	a4,42c0 <Delay_Ms+0x28>
    42c6:	4398                	lw	a4,0(a5)
    42c8:	9b79                	andi	a4,a4,-2
    42ca:	c398                	sw	a4,0(a5)
    42cc:	8082                	ret

000042ce <USART_Printf_Init>:
    42ce:	f23fb2ef          	jal	t0,1f0 <__riscv_save_0>
    42d2:	1101                	addi	sp,sp,-32
    42d4:	842a                	mv	s0,a0
    42d6:	4585                	li	a1,1
    42d8:	00020537          	lui	a0,0x20
    42dc:	c49ff0ef          	jal	ra,3f24 <RCC_APB1PeriphClockCmd>
    42e0:	4585                	li	a1,1
    42e2:	4511                	li	a0,4
    42e4:	c23ff0ef          	jal	ra,3f06 <RCC_APB2PeriphClockCmd>
    42e8:	4791                	li	a5,4
    42ea:	827c                	sh	a5,4(sp)
    42ec:	40011537          	lui	a0,0x40011
    42f0:	478d                	li	a5,3
    42f2:	c43e                	sw	a5,8(sp)
    42f4:	004c                	addi	a1,sp,4
    42f6:	47e1                	li	a5,24
    42f8:	80050513          	addi	a0,a0,-2048 # 40010800 <_eusrstack+0x20008800>
    42fc:	c63e                	sw	a5,12(sp)
    42fe:	959ff0ef          	jal	ra,3c56 <GPIO_Init>
    4302:	c822                	sw	s0,16(sp)
    4304:	40004437          	lui	s0,0x40004
    4308:	000807b7          	lui	a5,0x80
    430c:	080c                	addi	a1,sp,16
    430e:	40040513          	addi	a0,s0,1024 # 40004400 <_eusrstack+0x1fffc400>
    4312:	cc3e                	sw	a5,24(sp)
    4314:	ca02                	sw	zero,20(sp)
    4316:	00011e23          	sh	zero,28(sp)
    431a:	dedff0ef          	jal	ra,4106 <USART_Init>
    431e:	4585                	li	a1,1
    4320:	40040513          	addi	a0,s0,1024
    4324:	e73ff0ef          	jal	ra,4196 <USART_Cmd>
    4328:	6105                	addi	sp,sp,32
    432a:	eebfb06f          	j	214 <__riscv_restore_0>

0000432e <_write>:
    432e:	ea9fb2ef          	jal	t0,1d6 <__riscv_save_4>
    4332:	400044b7          	lui	s1,0x40004
    4336:	89ae                	mv	s3,a1
    4338:	8932                	mv	s2,a2
    433a:	4401                	li	s0,0
    433c:	40048493          	addi	s1,s1,1024 # 40004400 <_eusrstack+0x1fffc400>
    4340:	01244563          	blt	s0,s2,434a <_write+0x1c>
    4344:	854a                	mv	a0,s2
    4346:	ec5fb06f          	j	20a <__riscv_restore_4>
    434a:	04000593          	li	a1,64
    434e:	8526                	mv	a0,s1
    4350:	ea3ff0ef          	jal	ra,41f2 <USART_GetFlagStatus>
    4354:	d97d                	beqz	a0,434a <_write+0x1c>
    4356:	008987b3          	add	a5,s3,s0
    435a:	00078583          	lb	a1,0(a5) # 80000 <_data_lma+0x7a03c>
    435e:	8526                	mv	a0,s1
    4360:	0405                	addi	s0,s0,1
    4362:	05c2                	slli	a1,a1,0x10
    4364:	81c1                	srli	a1,a1,0x10
    4366:	e7dff0ef          	jal	ra,41e2 <USART_SendData>
    436a:	bfd9                	j	4340 <_write+0x12>

0000436c <_sbrk>:
    436c:	80818713          	addi	a4,gp,-2040 # 20000088 <curbrk.5377>
    4370:	431c                	lw	a5,0(a4)
    4372:	200016b7          	lui	a3,0x20001
    4376:	4d468693          	addi	a3,a3,1236 # 200014d4 <_ebss>
    437a:	953e                	add	a0,a0,a5
    437c:	00d56b63          	bltu	a0,a3,4392 <_sbrk+0x26>
    4380:	200086b7          	lui	a3,0x20008
    4384:	80068693          	addi	a3,a3,-2048 # 20007800 <_heap_end>
    4388:	00a6e563          	bltu	a3,a0,4392 <_sbrk+0x26>
    438c:	c308                	sw	a0,0(a4)
    438e:	853e                	mv	a0,a5
    4390:	8082                	ret
    4392:	57fd                	li	a5,-1
    4394:	bfed                	j	438e <_sbrk+0x22>

00004396 <memchr>:
    4396:	0ff5f593          	andi	a1,a1,255
    439a:	962a                	add	a2,a2,a0
    439c:	00c51463          	bne	a0,a2,43a4 <memchr+0xe>
    43a0:	4501                	li	a0,0
    43a2:	8082                	ret
    43a4:	211c                	lbu	a5,0(a0)
    43a6:	feb78ee3          	beq	a5,a1,43a2 <memchr+0xc>
    43aa:	0505                	addi	a0,a0,1
    43ac:	bfc5                	j	439c <memchr+0x6>

000043ae <memcpy>:
    43ae:	00a5c7b3          	xor	a5,a1,a0
    43b2:	8b8d                	andi	a5,a5,3
    43b4:	00c50733          	add	a4,a0,a2
    43b8:	e781                	bnez	a5,43c0 <memcpy+0x12>
    43ba:	478d                	li	a5,3
    43bc:	00c7ed63          	bltu	a5,a2,43d6 <memcpy+0x28>
    43c0:	87aa                	mv	a5,a0
    43c2:	08e57e63          	bgeu	a0,a4,445e <memcpy+0xb0>
    43c6:	2194                	lbu	a3,0(a1)
    43c8:	0785                	addi	a5,a5,1
    43ca:	0585                	addi	a1,a1,1
    43cc:	fed78fa3          	sb	a3,-1(a5)
    43d0:	fee7ebe3          	bltu	a5,a4,43c6 <memcpy+0x18>
    43d4:	8082                	ret
    43d6:	00357693          	andi	a3,a0,3
    43da:	87aa                	mv	a5,a0
    43dc:	ca89                	beqz	a3,43ee <memcpy+0x40>
    43de:	2194                	lbu	a3,0(a1)
    43e0:	0785                	addi	a5,a5,1
    43e2:	0585                	addi	a1,a1,1
    43e4:	fed78fa3          	sb	a3,-1(a5)
    43e8:	0037f693          	andi	a3,a5,3
    43ec:	bfc5                	j	43dc <memcpy+0x2e>
    43ee:	ffc77693          	andi	a3,a4,-4
    43f2:	fe068613          	addi	a2,a3,-32
    43f6:	06c7f063          	bgeu	a5,a2,4456 <memcpy+0xa8>
    43fa:	0005a383          	lw	t2,0(a1) # 40021000 <_eusrstack+0x20019000>
    43fe:	0045a283          	lw	t0,4(a1)
    4402:	0085af83          	lw	t6,8(a1)
    4406:	00c5af03          	lw	t5,12(a1)
    440a:	0105ae83          	lw	t4,16(a1)
    440e:	0145ae03          	lw	t3,20(a1)
    4412:	0185a303          	lw	t1,24(a1)
    4416:	01c5a883          	lw	a7,28(a1)
    441a:	02458593          	addi	a1,a1,36
    441e:	0077a023          	sw	t2,0(a5)
    4422:	ffc5a803          	lw	a6,-4(a1)
    4426:	0057a223          	sw	t0,4(a5)
    442a:	01f7a423          	sw	t6,8(a5)
    442e:	01e7a623          	sw	t5,12(a5)
    4432:	01d7a823          	sw	t4,16(a5)
    4436:	01c7aa23          	sw	t3,20(a5)
    443a:	0067ac23          	sw	t1,24(a5)
    443e:	0117ae23          	sw	a7,28(a5)
    4442:	02478793          	addi	a5,a5,36
    4446:	ff07ae23          	sw	a6,-4(a5)
    444a:	b775                	j	43f6 <memcpy+0x48>
    444c:	4190                	lw	a2,0(a1)
    444e:	0791                	addi	a5,a5,4
    4450:	0591                	addi	a1,a1,4
    4452:	fec7ae23          	sw	a2,-4(a5)
    4456:	fed7ebe3          	bltu	a5,a3,444c <memcpy+0x9e>
    445a:	f6e7e6e3          	bltu	a5,a4,43c6 <memcpy+0x18>
    445e:	8082                	ret

00004460 <iprintf>:
    4460:	7139                	addi	sp,sp,-64
    4462:	da3e                	sw	a5,52(sp)
    4464:	d22e                	sw	a1,36(sp)
    4466:	d432                	sw	a2,40(sp)
    4468:	d636                	sw	a3,44(sp)
    446a:	d83a                	sw	a4,48(sp)
    446c:	dc42                	sw	a6,56(sp)
    446e:	de46                	sw	a7,60(sp)
    4470:	80c18793          	addi	a5,gp,-2036 # 2000008c <_impure_ptr>
    4474:	cc22                	sw	s0,24(sp)
    4476:	4380                	lw	s0,0(a5)
    4478:	ca26                	sw	s1,20(sp)
    447a:	ce06                	sw	ra,28(sp)
    447c:	84aa                	mv	s1,a0
    447e:	c409                	beqz	s0,4488 <iprintf+0x28>
    4480:	4c1c                	lw	a5,24(s0)
    4482:	e399                	bnez	a5,4488 <iprintf+0x28>
    4484:	8522                	mv	a0,s0
    4486:	29fd                	jal	4984 <__sinit>
    4488:	440c                	lw	a1,8(s0)
    448a:	1054                	addi	a3,sp,36
    448c:	8626                	mv	a2,s1
    448e:	8522                	mv	a0,s0
    4490:	c636                	sw	a3,12(sp)
    4492:	139000ef          	jal	ra,4dca <_vfiprintf_r>
    4496:	40f2                	lw	ra,28(sp)
    4498:	4462                	lw	s0,24(sp)
    449a:	44d2                	lw	s1,20(sp)
    449c:	6121                	addi	sp,sp,64
    449e:	8082                	ret

000044a0 <_puts_r>:
    44a0:	1101                	addi	sp,sp,-32
    44a2:	ca26                	sw	s1,20(sp)
    44a4:	c84a                	sw	s2,16(sp)
    44a6:	ce06                	sw	ra,28(sp)
    44a8:	cc22                	sw	s0,24(sp)
    44aa:	c64e                	sw	s3,12(sp)
    44ac:	c452                	sw	s4,8(sp)
    44ae:	84aa                	mv	s1,a0
    44b0:	892e                	mv	s2,a1
    44b2:	c501                	beqz	a0,44ba <_puts_r+0x1a>
    44b4:	4d1c                	lw	a5,24(a0)
    44b6:	e391                	bnez	a5,44ba <_puts_r+0x1a>
    44b8:	21f1                	jal	4984 <__sinit>
    44ba:	4c9c                	lw	a5,24(s1)
    44bc:	4480                	lw	s0,8(s1)
    44be:	e399                	bnez	a5,44c4 <_puts_r+0x24>
    44c0:	8526                	mv	a0,s1
    44c2:	21c9                	jal	4984 <__sinit>
    44c4:	00002797          	auipc	a5,0x2
    44c8:	a8478793          	addi	a5,a5,-1404 # 5f48 <__sf_fake_stdin>
    44cc:	02f41b63          	bne	s0,a5,4502 <_puts_r+0x62>
    44d0:	40c0                	lw	s0,4(s1)
    44d2:	245e                	lhu	a5,12(s0)
    44d4:	8ba1                	andi	a5,a5,8
    44d6:	c7b1                	beqz	a5,4522 <_puts_r+0x82>
    44d8:	481c                	lw	a5,16(s0)
    44da:	c7a1                	beqz	a5,4522 <_puts_r+0x82>
    44dc:	59fd                	li	s3,-1
    44de:	4a29                	li	s4,10
    44e0:	441c                	lw	a5,8(s0)
    44e2:	00094583          	lbu	a1,0(s2)
    44e6:	17fd                	addi	a5,a5,-1
    44e8:	e9b1                	bnez	a1,453c <_puts_r+0x9c>
    44ea:	c41c                	sw	a5,8(s0)
    44ec:	0607dd63          	bgez	a5,4566 <_puts_r+0xc6>
    44f0:	8622                	mv	a2,s0
    44f2:	45a9                	li	a1,10
    44f4:	8526                	mv	a0,s1
    44f6:	2069                	jal	4580 <__swbuf_r>
    44f8:	57fd                	li	a5,-1
    44fa:	02f50863          	beq	a0,a5,452a <_puts_r+0x8a>
    44fe:	4529                	li	a0,10
    4500:	a035                	j	452c <_puts_r+0x8c>
    4502:	00002797          	auipc	a5,0x2
    4506:	a6678793          	addi	a5,a5,-1434 # 5f68 <__sf_fake_stdout>
    450a:	00f41463          	bne	s0,a5,4512 <_puts_r+0x72>
    450e:	4480                	lw	s0,8(s1)
    4510:	b7c9                	j	44d2 <_puts_r+0x32>
    4512:	00002797          	auipc	a5,0x2
    4516:	a1678793          	addi	a5,a5,-1514 # 5f28 <__sf_fake_stderr>
    451a:	faf41ce3          	bne	s0,a5,44d2 <_puts_r+0x32>
    451e:	44c0                	lw	s0,12(s1)
    4520:	bf4d                	j	44d2 <_puts_r+0x32>
    4522:	85a2                	mv	a1,s0
    4524:	8526                	mv	a0,s1
    4526:	2a19                	jal	463c <__swsetup_r>
    4528:	d955                	beqz	a0,44dc <_puts_r+0x3c>
    452a:	557d                	li	a0,-1
    452c:	40f2                	lw	ra,28(sp)
    452e:	4462                	lw	s0,24(sp)
    4530:	44d2                	lw	s1,20(sp)
    4532:	4942                	lw	s2,16(sp)
    4534:	49b2                	lw	s3,12(sp)
    4536:	4a22                	lw	s4,8(sp)
    4538:	6105                	addi	sp,sp,32
    453a:	8082                	ret
    453c:	c41c                	sw	a5,8(s0)
    453e:	0905                	addi	s2,s2,1
    4540:	0007d763          	bgez	a5,454e <_puts_r+0xae>
    4544:	4c18                	lw	a4,24(s0)
    4546:	00e7ca63          	blt	a5,a4,455a <_puts_r+0xba>
    454a:	01458863          	beq	a1,s4,455a <_puts_r+0xba>
    454e:	401c                	lw	a5,0(s0)
    4550:	00178713          	addi	a4,a5,1
    4554:	c018                	sw	a4,0(s0)
    4556:	a38c                	sb	a1,0(a5)
    4558:	b761                	j	44e0 <_puts_r+0x40>
    455a:	8622                	mv	a2,s0
    455c:	8526                	mv	a0,s1
    455e:	200d                	jal	4580 <__swbuf_r>
    4560:	f93510e3          	bne	a0,s3,44e0 <_puts_r+0x40>
    4564:	b7d9                	j	452a <_puts_r+0x8a>
    4566:	401c                	lw	a5,0(s0)
    4568:	00178713          	addi	a4,a5,1
    456c:	c018                	sw	a4,0(s0)
    456e:	4729                	li	a4,10
    4570:	a398                	sb	a4,0(a5)
    4572:	b771                	j	44fe <_puts_r+0x5e>

00004574 <puts>:
    4574:	80c18793          	addi	a5,gp,-2036 # 2000008c <_impure_ptr>
    4578:	85aa                	mv	a1,a0
    457a:	4388                	lw	a0,0(a5)
    457c:	f25ff06f          	j	44a0 <_puts_r>

00004580 <__swbuf_r>:
    4580:	1101                	addi	sp,sp,-32
    4582:	cc22                	sw	s0,24(sp)
    4584:	ca26                	sw	s1,20(sp)
    4586:	c84a                	sw	s2,16(sp)
    4588:	ce06                	sw	ra,28(sp)
    458a:	c64e                	sw	s3,12(sp)
    458c:	84aa                	mv	s1,a0
    458e:	892e                	mv	s2,a1
    4590:	8432                	mv	s0,a2
    4592:	c501                	beqz	a0,459a <__swbuf_r+0x1a>
    4594:	4d1c                	lw	a5,24(a0)
    4596:	e391                	bnez	a5,459a <__swbuf_r+0x1a>
    4598:	26f5                	jal	4984 <__sinit>
    459a:	00002797          	auipc	a5,0x2
    459e:	9ae78793          	addi	a5,a5,-1618 # 5f48 <__sf_fake_stdin>
    45a2:	06f41763          	bne	s0,a5,4610 <__swbuf_r+0x90>
    45a6:	40c0                	lw	s0,4(s1)
    45a8:	4c1c                	lw	a5,24(s0)
    45aa:	c41c                	sw	a5,8(s0)
    45ac:	245e                	lhu	a5,12(s0)
    45ae:	8ba1                	andi	a5,a5,8
    45b0:	c3c1                	beqz	a5,4630 <__swbuf_r+0xb0>
    45b2:	481c                	lw	a5,16(s0)
    45b4:	cfb5                	beqz	a5,4630 <__swbuf_r+0xb0>
    45b6:	481c                	lw	a5,16(s0)
    45b8:	4008                	lw	a0,0(s0)
    45ba:	0ff97993          	andi	s3,s2,255
    45be:	0ff97913          	andi	s2,s2,255
    45c2:	8d1d                	sub	a0,a0,a5
    45c4:	485c                	lw	a5,20(s0)
    45c6:	00f54663          	blt	a0,a5,45d2 <__swbuf_r+0x52>
    45ca:	85a2                	mv	a1,s0
    45cc:	8526                	mv	a0,s1
    45ce:	2c69                	jal	4868 <_fflush_r>
    45d0:	e525                	bnez	a0,4638 <__swbuf_r+0xb8>
    45d2:	441c                	lw	a5,8(s0)
    45d4:	0505                	addi	a0,a0,1
    45d6:	17fd                	addi	a5,a5,-1
    45d8:	c41c                	sw	a5,8(s0)
    45da:	401c                	lw	a5,0(s0)
    45dc:	00178713          	addi	a4,a5,1
    45e0:	c018                	sw	a4,0(s0)
    45e2:	01378023          	sb	s3,0(a5)
    45e6:	485c                	lw	a5,20(s0)
    45e8:	00a78863          	beq	a5,a0,45f8 <__swbuf_r+0x78>
    45ec:	245e                	lhu	a5,12(s0)
    45ee:	8b85                	andi	a5,a5,1
    45f0:	cb81                	beqz	a5,4600 <__swbuf_r+0x80>
    45f2:	47a9                	li	a5,10
    45f4:	00f91663          	bne	s2,a5,4600 <__swbuf_r+0x80>
    45f8:	85a2                	mv	a1,s0
    45fa:	8526                	mv	a0,s1
    45fc:	24b5                	jal	4868 <_fflush_r>
    45fe:	ed0d                	bnez	a0,4638 <__swbuf_r+0xb8>
    4600:	40f2                	lw	ra,28(sp)
    4602:	4462                	lw	s0,24(sp)
    4604:	854a                	mv	a0,s2
    4606:	44d2                	lw	s1,20(sp)
    4608:	4942                	lw	s2,16(sp)
    460a:	49b2                	lw	s3,12(sp)
    460c:	6105                	addi	sp,sp,32
    460e:	8082                	ret
    4610:	00002797          	auipc	a5,0x2
    4614:	95878793          	addi	a5,a5,-1704 # 5f68 <__sf_fake_stdout>
    4618:	00f41463          	bne	s0,a5,4620 <__swbuf_r+0xa0>
    461c:	4480                	lw	s0,8(s1)
    461e:	b769                	j	45a8 <__swbuf_r+0x28>
    4620:	00002797          	auipc	a5,0x2
    4624:	90878793          	addi	a5,a5,-1784 # 5f28 <__sf_fake_stderr>
    4628:	f8f410e3          	bne	s0,a5,45a8 <__swbuf_r+0x28>
    462c:	44c0                	lw	s0,12(s1)
    462e:	bfad                	j	45a8 <__swbuf_r+0x28>
    4630:	85a2                	mv	a1,s0
    4632:	8526                	mv	a0,s1
    4634:	2021                	jal	463c <__swsetup_r>
    4636:	d141                	beqz	a0,45b6 <__swbuf_r+0x36>
    4638:	597d                	li	s2,-1
    463a:	b7d9                	j	4600 <__swbuf_r+0x80>

0000463c <__swsetup_r>:
    463c:	1141                	addi	sp,sp,-16
    463e:	80c18793          	addi	a5,gp,-2036 # 2000008c <_impure_ptr>
    4642:	c226                	sw	s1,4(sp)
    4644:	4384                	lw	s1,0(a5)
    4646:	c422                	sw	s0,8(sp)
    4648:	c04a                	sw	s2,0(sp)
    464a:	c606                	sw	ra,12(sp)
    464c:	892a                	mv	s2,a0
    464e:	842e                	mv	s0,a1
    4650:	c489                	beqz	s1,465a <__swsetup_r+0x1e>
    4652:	4c9c                	lw	a5,24(s1)
    4654:	e399                	bnez	a5,465a <__swsetup_r+0x1e>
    4656:	8526                	mv	a0,s1
    4658:	2635                	jal	4984 <__sinit>
    465a:	00002797          	auipc	a5,0x2
    465e:	8ee78793          	addi	a5,a5,-1810 # 5f48 <__sf_fake_stdin>
    4662:	02f41b63          	bne	s0,a5,4698 <__swsetup_r+0x5c>
    4666:	40c0                	lw	s0,4(s1)
    4668:	00c41703          	lh	a4,12(s0)
    466c:	01071793          	slli	a5,a4,0x10
    4670:	83c1                	srli	a5,a5,0x10
    4672:	0087f693          	andi	a3,a5,8
    4676:	eaad                	bnez	a3,46e8 <__swsetup_r+0xac>
    4678:	0107f693          	andi	a3,a5,16
    467c:	ee95                	bnez	a3,46b8 <__swsetup_r+0x7c>
    467e:	47a5                	li	a5,9
    4680:	00f92023          	sw	a5,0(s2)
    4684:	04076713          	ori	a4,a4,64
    4688:	a45a                	sh	a4,12(s0)
    468a:	557d                	li	a0,-1
    468c:	40b2                	lw	ra,12(sp)
    468e:	4422                	lw	s0,8(sp)
    4690:	4492                	lw	s1,4(sp)
    4692:	4902                	lw	s2,0(sp)
    4694:	0141                	addi	sp,sp,16
    4696:	8082                	ret
    4698:	00002797          	auipc	a5,0x2
    469c:	8d078793          	addi	a5,a5,-1840 # 5f68 <__sf_fake_stdout>
    46a0:	00f41463          	bne	s0,a5,46a8 <__swsetup_r+0x6c>
    46a4:	4480                	lw	s0,8(s1)
    46a6:	b7c9                	j	4668 <__swsetup_r+0x2c>
    46a8:	00002797          	auipc	a5,0x2
    46ac:	88078793          	addi	a5,a5,-1920 # 5f28 <__sf_fake_stderr>
    46b0:	faf41ce3          	bne	s0,a5,4668 <__swsetup_r+0x2c>
    46b4:	44c0                	lw	s0,12(s1)
    46b6:	bf4d                	j	4668 <__swsetup_r+0x2c>
    46b8:	8b91                	andi	a5,a5,4
    46ba:	c39d                	beqz	a5,46e0 <__swsetup_r+0xa4>
    46bc:	584c                	lw	a1,52(s0)
    46be:	c989                	beqz	a1,46d0 <__swsetup_r+0x94>
    46c0:	04440793          	addi	a5,s0,68
    46c4:	00f58463          	beq	a1,a5,46cc <__swsetup_r+0x90>
    46c8:	854a                	mv	a0,s2
    46ca:	2b29                	jal	4be4 <_free_r>
    46cc:	02042a23          	sw	zero,52(s0)
    46d0:	245e                	lhu	a5,12(s0)
    46d2:	00042223          	sw	zero,4(s0)
    46d6:	fdb7f793          	andi	a5,a5,-37
    46da:	a45e                	sh	a5,12(s0)
    46dc:	481c                	lw	a5,16(s0)
    46de:	c01c                	sw	a5,0(s0)
    46e0:	245e                	lhu	a5,12(s0)
    46e2:	0087e793          	ori	a5,a5,8
    46e6:	a45e                	sh	a5,12(s0)
    46e8:	481c                	lw	a5,16(s0)
    46ea:	eb99                	bnez	a5,4700 <__swsetup_r+0xc4>
    46ec:	245e                	lhu	a5,12(s0)
    46ee:	20000713          	li	a4,512
    46f2:	2807f793          	andi	a5,a5,640
    46f6:	00e78563          	beq	a5,a4,4700 <__swsetup_r+0xc4>
    46fa:	85a2                	mv	a1,s0
    46fc:	854a                	mv	a0,s2
    46fe:	2991                	jal	4b52 <__smakebuf_r>
    4700:	245e                	lhu	a5,12(s0)
    4702:	0017f713          	andi	a4,a5,1
    4706:	c31d                	beqz	a4,472c <__swsetup_r+0xf0>
    4708:	485c                	lw	a5,20(s0)
    470a:	00042423          	sw	zero,8(s0)
    470e:	40f007b3          	neg	a5,a5
    4712:	cc1c                	sw	a5,24(s0)
    4714:	481c                	lw	a5,16(s0)
    4716:	4501                	li	a0,0
    4718:	fbb5                	bnez	a5,468c <__swsetup_r+0x50>
    471a:	00c41783          	lh	a5,12(s0)
    471e:	0807f713          	andi	a4,a5,128
    4722:	d72d                	beqz	a4,468c <__swsetup_r+0x50>
    4724:	0407e793          	ori	a5,a5,64
    4728:	a45e                	sh	a5,12(s0)
    472a:	b785                	j	468a <__swsetup_r+0x4e>
    472c:	8b89                	andi	a5,a5,2
    472e:	4701                	li	a4,0
    4730:	e391                	bnez	a5,4734 <__swsetup_r+0xf8>
    4732:	4858                	lw	a4,20(s0)
    4734:	c418                	sw	a4,8(s0)
    4736:	bff9                	j	4714 <__swsetup_r+0xd8>

00004738 <__sflush_r>:
    4738:	25de                	lhu	a5,12(a1)
    473a:	1101                	addi	sp,sp,-32
    473c:	cc22                	sw	s0,24(sp)
    473e:	ca26                	sw	s1,20(sp)
    4740:	ce06                	sw	ra,28(sp)
    4742:	c84a                	sw	s2,16(sp)
    4744:	c64e                	sw	s3,12(sp)
    4746:	0087f713          	andi	a4,a5,8
    474a:	84aa                	mv	s1,a0
    474c:	842e                	mv	s0,a1
    474e:	eb79                	bnez	a4,4824 <__sflush_r+0xec>
    4750:	41d8                	lw	a4,4(a1)
    4752:	00e04d63          	bgtz	a4,476c <__sflush_r+0x34>
    4756:	41b8                	lw	a4,64(a1)
    4758:	00e04a63          	bgtz	a4,476c <__sflush_r+0x34>
    475c:	4501                	li	a0,0
    475e:	40f2                	lw	ra,28(sp)
    4760:	4462                	lw	s0,24(sp)
    4762:	44d2                	lw	s1,20(sp)
    4764:	4942                	lw	s2,16(sp)
    4766:	49b2                	lw	s3,12(sp)
    4768:	6105                	addi	sp,sp,32
    476a:	8082                	ret
    476c:	5458                	lw	a4,44(s0)
    476e:	d77d                	beqz	a4,475c <__sflush_r+0x24>
    4770:	0004a903          	lw	s2,0(s1)
    4774:	01379693          	slli	a3,a5,0x13
    4778:	0004a023          	sw	zero,0(s1)
    477c:	0606db63          	bgez	a3,47f2 <__sflush_r+0xba>
    4780:	4870                	lw	a2,84(s0)
    4782:	245e                	lhu	a5,12(s0)
    4784:	8b91                	andi	a5,a5,4
    4786:	c799                	beqz	a5,4794 <__sflush_r+0x5c>
    4788:	405c                	lw	a5,4(s0)
    478a:	8e1d                	sub	a2,a2,a5
    478c:	585c                	lw	a5,52(s0)
    478e:	c399                	beqz	a5,4794 <__sflush_r+0x5c>
    4790:	403c                	lw	a5,64(s0)
    4792:	8e1d                	sub	a2,a2,a5
    4794:	545c                	lw	a5,44(s0)
    4796:	500c                	lw	a1,32(s0)
    4798:	4681                	li	a3,0
    479a:	8526                	mv	a0,s1
    479c:	9782                	jalr	a5
    479e:	57fd                	li	a5,-1
    47a0:	245a                	lhu	a4,12(s0)
    47a2:	00f51d63          	bne	a0,a5,47bc <__sflush_r+0x84>
    47a6:	4094                	lw	a3,0(s1)
    47a8:	47f5                	li	a5,29
    47aa:	06d7e863          	bltu	a5,a3,481a <__sflush_r+0xe2>
    47ae:	204007b7          	lui	a5,0x20400
    47b2:	0785                	addi	a5,a5,1
    47b4:	00d7d7b3          	srl	a5,a5,a3
    47b8:	8b85                	andi	a5,a5,1
    47ba:	c3a5                	beqz	a5,481a <__sflush_r+0xe2>
    47bc:	481c                	lw	a5,16(s0)
    47be:	00042223          	sw	zero,4(s0)
    47c2:	c01c                	sw	a5,0(s0)
    47c4:	01371793          	slli	a5,a4,0x13
    47c8:	0007d863          	bgez	a5,47d8 <__sflush_r+0xa0>
    47cc:	57fd                	li	a5,-1
    47ce:	00f51463          	bne	a0,a5,47d6 <__sflush_r+0x9e>
    47d2:	409c                	lw	a5,0(s1)
    47d4:	e391                	bnez	a5,47d8 <__sflush_r+0xa0>
    47d6:	c868                	sw	a0,84(s0)
    47d8:	584c                	lw	a1,52(s0)
    47da:	0124a023          	sw	s2,0(s1)
    47de:	ddbd                	beqz	a1,475c <__sflush_r+0x24>
    47e0:	04440793          	addi	a5,s0,68
    47e4:	00f58463          	beq	a1,a5,47ec <__sflush_r+0xb4>
    47e8:	8526                	mv	a0,s1
    47ea:	2eed                	jal	4be4 <_free_r>
    47ec:	02042a23          	sw	zero,52(s0)
    47f0:	b7b5                	j	475c <__sflush_r+0x24>
    47f2:	500c                	lw	a1,32(s0)
    47f4:	4601                	li	a2,0
    47f6:	4685                	li	a3,1
    47f8:	8526                	mv	a0,s1
    47fa:	9702                	jalr	a4
    47fc:	57fd                	li	a5,-1
    47fe:	862a                	mv	a2,a0
    4800:	f8f511e3          	bne	a0,a5,4782 <__sflush_r+0x4a>
    4804:	409c                	lw	a5,0(s1)
    4806:	dfb5                	beqz	a5,4782 <__sflush_r+0x4a>
    4808:	4775                	li	a4,29
    480a:	00e78563          	beq	a5,a4,4814 <__sflush_r+0xdc>
    480e:	4759                	li	a4,22
    4810:	04e79363          	bne	a5,a4,4856 <__sflush_r+0x11e>
    4814:	0124a023          	sw	s2,0(s1)
    4818:	b791                	j	475c <__sflush_r+0x24>
    481a:	04076713          	ori	a4,a4,64
    481e:	a45a                	sh	a4,12(s0)
    4820:	557d                	li	a0,-1
    4822:	bf35                	j	475e <__sflush_r+0x26>
    4824:	0105a983          	lw	s3,16(a1)
    4828:	f2098ae3          	beqz	s3,475c <__sflush_r+0x24>
    482c:	0005a903          	lw	s2,0(a1)
    4830:	8b8d                	andi	a5,a5,3
    4832:	0135a023          	sw	s3,0(a1)
    4836:	41390933          	sub	s2,s2,s3
    483a:	4701                	li	a4,0
    483c:	e391                	bnez	a5,4840 <__sflush_r+0x108>
    483e:	49d8                	lw	a4,20(a1)
    4840:	c418                	sw	a4,8(s0)
    4842:	f1205de3          	blez	s2,475c <__sflush_r+0x24>
    4846:	541c                	lw	a5,40(s0)
    4848:	500c                	lw	a1,32(s0)
    484a:	86ca                	mv	a3,s2
    484c:	864e                	mv	a2,s3
    484e:	8526                	mv	a0,s1
    4850:	9782                	jalr	a5
    4852:	00a04763          	bgtz	a0,4860 <__sflush_r+0x128>
    4856:	245e                	lhu	a5,12(s0)
    4858:	0407e793          	ori	a5,a5,64
    485c:	a45e                	sh	a5,12(s0)
    485e:	b7c9                	j	4820 <__sflush_r+0xe8>
    4860:	99aa                	add	s3,s3,a0
    4862:	40a90933          	sub	s2,s2,a0
    4866:	bff1                	j	4842 <__sflush_r+0x10a>

00004868 <_fflush_r>:
    4868:	499c                	lw	a5,16(a1)
    486a:	c3a5                	beqz	a5,48ca <_fflush_r+0x62>
    486c:	1101                	addi	sp,sp,-32
    486e:	cc22                	sw	s0,24(sp)
    4870:	ce06                	sw	ra,28(sp)
    4872:	842a                	mv	s0,a0
    4874:	c511                	beqz	a0,4880 <_fflush_r+0x18>
    4876:	4d1c                	lw	a5,24(a0)
    4878:	e781                	bnez	a5,4880 <_fflush_r+0x18>
    487a:	c62e                	sw	a1,12(sp)
    487c:	2221                	jal	4984 <__sinit>
    487e:	45b2                	lw	a1,12(sp)
    4880:	00001797          	auipc	a5,0x1
    4884:	6c878793          	addi	a5,a5,1736 # 5f48 <__sf_fake_stdin>
    4888:	00f59c63          	bne	a1,a5,48a0 <_fflush_r+0x38>
    488c:	404c                	lw	a1,4(s0)
    488e:	00c59783          	lh	a5,12(a1)
    4892:	c79d                	beqz	a5,48c0 <_fflush_r+0x58>
    4894:	8522                	mv	a0,s0
    4896:	4462                	lw	s0,24(sp)
    4898:	40f2                	lw	ra,28(sp)
    489a:	6105                	addi	sp,sp,32
    489c:	e9dff06f          	j	4738 <__sflush_r>
    48a0:	00001797          	auipc	a5,0x1
    48a4:	6c878793          	addi	a5,a5,1736 # 5f68 <__sf_fake_stdout>
    48a8:	00f59463          	bne	a1,a5,48b0 <_fflush_r+0x48>
    48ac:	440c                	lw	a1,8(s0)
    48ae:	b7c5                	j	488e <_fflush_r+0x26>
    48b0:	00001797          	auipc	a5,0x1
    48b4:	67878793          	addi	a5,a5,1656 # 5f28 <__sf_fake_stderr>
    48b8:	fcf59be3          	bne	a1,a5,488e <_fflush_r+0x26>
    48bc:	444c                	lw	a1,12(s0)
    48be:	bfc1                	j	488e <_fflush_r+0x26>
    48c0:	40f2                	lw	ra,28(sp)
    48c2:	4462                	lw	s0,24(sp)
    48c4:	4501                	li	a0,0
    48c6:	6105                	addi	sp,sp,32
    48c8:	8082                	ret
    48ca:	4501                	li	a0,0
    48cc:	8082                	ret

000048ce <std>:
    48ce:	1141                	addi	sp,sp,-16
    48d0:	c422                	sw	s0,8(sp)
    48d2:	c606                	sw	ra,12(sp)
    48d4:	842a                	mv	s0,a0
    48d6:	a54e                	sh	a1,12(a0)
    48d8:	a572                	sh	a2,14(a0)
    48da:	00052023          	sw	zero,0(a0)
    48de:	00052223          	sw	zero,4(a0)
    48e2:	00052423          	sw	zero,8(a0)
    48e6:	06052223          	sw	zero,100(a0)
    48ea:	00052823          	sw	zero,16(a0)
    48ee:	00052a23          	sw	zero,20(a0)
    48f2:	00052c23          	sw	zero,24(a0)
    48f6:	4621                	li	a2,8
    48f8:	4581                	li	a1,0
    48fa:	05c50513          	addi	a0,a0,92
    48fe:	923fb0ef          	jal	ra,220 <memset>
    4902:	00001797          	auipc	a5,0x1
    4906:	b3878793          	addi	a5,a5,-1224 # 543a <__sread>
    490a:	d05c                	sw	a5,36(s0)
    490c:	00001797          	auipc	a5,0x1
    4910:	b5a78793          	addi	a5,a5,-1190 # 5466 <__swrite>
    4914:	d41c                	sw	a5,40(s0)
    4916:	00001797          	auipc	a5,0x1
    491a:	b9878793          	addi	a5,a5,-1128 # 54ae <__sseek>
    491e:	d45c                	sw	a5,44(s0)
    4920:	00001797          	auipc	a5,0x1
    4924:	bbe78793          	addi	a5,a5,-1090 # 54de <__sclose>
    4928:	d000                	sw	s0,32(s0)
    492a:	d81c                	sw	a5,48(s0)
    492c:	40b2                	lw	ra,12(sp)
    492e:	4422                	lw	s0,8(sp)
    4930:	0141                	addi	sp,sp,16
    4932:	8082                	ret

00004934 <_cleanup_r>:
    4934:	00000597          	auipc	a1,0x0
    4938:	f3458593          	addi	a1,a1,-204 # 4868 <_fflush_r>
    493c:	aa91                	j	4a90 <_fwalk_reent>

0000493e <__sfmoreglue>:
    493e:	1141                	addi	sp,sp,-16
    4940:	c226                	sw	s1,4(sp)
    4942:	06800613          	li	a2,104
    4946:	fff58493          	addi	s1,a1,-1
    494a:	02c484b3          	mul	s1,s1,a2
    494e:	c04a                	sw	s2,0(sp)
    4950:	892e                	mv	s2,a1
    4952:	c422                	sw	s0,8(sp)
    4954:	c606                	sw	ra,12(sp)
    4956:	07448593          	addi	a1,s1,116
    495a:	2e0d                	jal	4c8c <_malloc_r>
    495c:	842a                	mv	s0,a0
    495e:	cd01                	beqz	a0,4976 <__sfmoreglue+0x38>
    4960:	00052023          	sw	zero,0(a0)
    4964:	01252223          	sw	s2,4(a0)
    4968:	0531                	addi	a0,a0,12
    496a:	c408                	sw	a0,8(s0)
    496c:	06848613          	addi	a2,s1,104
    4970:	4581                	li	a1,0
    4972:	8affb0ef          	jal	ra,220 <memset>
    4976:	8522                	mv	a0,s0
    4978:	40b2                	lw	ra,12(sp)
    497a:	4422                	lw	s0,8(sp)
    497c:	4492                	lw	s1,4(sp)
    497e:	4902                	lw	s2,0(sp)
    4980:	0141                	addi	sp,sp,16
    4982:	8082                	ret

00004984 <__sinit>:
    4984:	4d1c                	lw	a5,24(a0)
    4986:	e7a5                	bnez	a5,49ee <__sinit+0x6a>
    4988:	1141                	addi	sp,sp,-16
    498a:	c606                	sw	ra,12(sp)
    498c:	c422                	sw	s0,8(sp)
    498e:	00000797          	auipc	a5,0x0
    4992:	fa678793          	addi	a5,a5,-90 # 4934 <_cleanup_r>
    4996:	d51c                	sw	a5,40(a0)
    4998:	87c18793          	addi	a5,gp,-1924 # 200000fc <_global_impure_ptr>
    499c:	439c                	lw	a5,0(a5)
    499e:	04052423          	sw	zero,72(a0)
    49a2:	04052623          	sw	zero,76(a0)
    49a6:	04052823          	sw	zero,80(a0)
    49aa:	00f51463          	bne	a0,a5,49b2 <__sinit+0x2e>
    49ae:	4785                	li	a5,1
    49b0:	cd1c                	sw	a5,24(a0)
    49b2:	842a                	mv	s0,a0
    49b4:	2835                	jal	49f0 <__sfp>
    49b6:	c048                	sw	a0,4(s0)
    49b8:	8522                	mv	a0,s0
    49ba:	281d                	jal	49f0 <__sfp>
    49bc:	c408                	sw	a0,8(s0)
    49be:	8522                	mv	a0,s0
    49c0:	2805                	jal	49f0 <__sfp>
    49c2:	c448                	sw	a0,12(s0)
    49c4:	4048                	lw	a0,4(s0)
    49c6:	4601                	li	a2,0
    49c8:	4591                	li	a1,4
    49ca:	f05ff0ef          	jal	ra,48ce <std>
    49ce:	4408                	lw	a0,8(s0)
    49d0:	4605                	li	a2,1
    49d2:	45a5                	li	a1,9
    49d4:	efbff0ef          	jal	ra,48ce <std>
    49d8:	4448                	lw	a0,12(s0)
    49da:	4609                	li	a2,2
    49dc:	45c9                	li	a1,18
    49de:	ef1ff0ef          	jal	ra,48ce <std>
    49e2:	4785                	li	a5,1
    49e4:	cc1c                	sw	a5,24(s0)
    49e6:	40b2                	lw	ra,12(sp)
    49e8:	4422                	lw	s0,8(sp)
    49ea:	0141                	addi	sp,sp,16
    49ec:	8082                	ret
    49ee:	8082                	ret

000049f0 <__sfp>:
    49f0:	1141                	addi	sp,sp,-16
    49f2:	87c18793          	addi	a5,gp,-1924 # 200000fc <_global_impure_ptr>
    49f6:	c226                	sw	s1,4(sp)
    49f8:	4384                	lw	s1,0(a5)
    49fa:	c04a                	sw	s2,0(sp)
    49fc:	c606                	sw	ra,12(sp)
    49fe:	4c9c                	lw	a5,24(s1)
    4a00:	c422                	sw	s0,8(sp)
    4a02:	892a                	mv	s2,a0
    4a04:	e781                	bnez	a5,4a0c <__sfp+0x1c>
    4a06:	8526                	mv	a0,s1
    4a08:	f7dff0ef          	jal	ra,4984 <__sinit>
    4a0c:	04848493          	addi	s1,s1,72
    4a10:	4480                	lw	s0,8(s1)
    4a12:	40dc                	lw	a5,4(s1)
    4a14:	17fd                	addi	a5,a5,-1
    4a16:	0007d663          	bgez	a5,4a22 <__sfp+0x32>
    4a1a:	409c                	lw	a5,0(s1)
    4a1c:	cfb9                	beqz	a5,4a7a <__sfp+0x8a>
    4a1e:	4084                	lw	s1,0(s1)
    4a20:	bfc5                	j	4a10 <__sfp+0x20>
    4a22:	00c41703          	lh	a4,12(s0)
    4a26:	e739                	bnez	a4,4a74 <__sfp+0x84>
    4a28:	77c1                	lui	a5,0xffff0
    4a2a:	0785                	addi	a5,a5,1
    4a2c:	06042223          	sw	zero,100(s0)
    4a30:	00042023          	sw	zero,0(s0)
    4a34:	00042223          	sw	zero,4(s0)
    4a38:	00042423          	sw	zero,8(s0)
    4a3c:	c45c                	sw	a5,12(s0)
    4a3e:	00042823          	sw	zero,16(s0)
    4a42:	00042a23          	sw	zero,20(s0)
    4a46:	00042c23          	sw	zero,24(s0)
    4a4a:	4621                	li	a2,8
    4a4c:	4581                	li	a1,0
    4a4e:	05c40513          	addi	a0,s0,92
    4a52:	fcefb0ef          	jal	ra,220 <memset>
    4a56:	02042a23          	sw	zero,52(s0)
    4a5a:	02042c23          	sw	zero,56(s0)
    4a5e:	04042423          	sw	zero,72(s0)
    4a62:	04042623          	sw	zero,76(s0)
    4a66:	8522                	mv	a0,s0
    4a68:	40b2                	lw	ra,12(sp)
    4a6a:	4422                	lw	s0,8(sp)
    4a6c:	4492                	lw	s1,4(sp)
    4a6e:	4902                	lw	s2,0(sp)
    4a70:	0141                	addi	sp,sp,16
    4a72:	8082                	ret
    4a74:	06840413          	addi	s0,s0,104
    4a78:	bf71                	j	4a14 <__sfp+0x24>
    4a7a:	4591                	li	a1,4
    4a7c:	854a                	mv	a0,s2
    4a7e:	ec1ff0ef          	jal	ra,493e <__sfmoreglue>
    4a82:	c088                	sw	a0,0(s1)
    4a84:	fd49                	bnez	a0,4a1e <__sfp+0x2e>
    4a86:	47b1                	li	a5,12
    4a88:	00f92023          	sw	a5,0(s2)
    4a8c:	4401                	li	s0,0
    4a8e:	bfe1                	j	4a66 <__sfp+0x76>

00004a90 <_fwalk_reent>:
    4a90:	7179                	addi	sp,sp,-48
    4a92:	d422                	sw	s0,40(sp)
    4a94:	d04a                	sw	s2,32(sp)
    4a96:	cc52                	sw	s4,24(sp)
    4a98:	ca56                	sw	s5,20(sp)
    4a9a:	c85a                	sw	s6,16(sp)
    4a9c:	c65e                	sw	s7,12(sp)
    4a9e:	d606                	sw	ra,44(sp)
    4aa0:	d226                	sw	s1,36(sp)
    4aa2:	ce4e                	sw	s3,28(sp)
    4aa4:	8a2a                	mv	s4,a0
    4aa6:	8aae                	mv	s5,a1
    4aa8:	04850413          	addi	s0,a0,72
    4aac:	4901                	li	s2,0
    4aae:	4b05                	li	s6,1
    4ab0:	5bfd                	li	s7,-1
    4ab2:	ec09                	bnez	s0,4acc <_fwalk_reent+0x3c>
    4ab4:	50b2                	lw	ra,44(sp)
    4ab6:	5422                	lw	s0,40(sp)
    4ab8:	854a                	mv	a0,s2
    4aba:	5492                	lw	s1,36(sp)
    4abc:	5902                	lw	s2,32(sp)
    4abe:	49f2                	lw	s3,28(sp)
    4ac0:	4a62                	lw	s4,24(sp)
    4ac2:	4ad2                	lw	s5,20(sp)
    4ac4:	4b42                	lw	s6,16(sp)
    4ac6:	4bb2                	lw	s7,12(sp)
    4ac8:	6145                	addi	sp,sp,48
    4aca:	8082                	ret
    4acc:	4404                	lw	s1,8(s0)
    4ace:	00442983          	lw	s3,4(s0)
    4ad2:	19fd                	addi	s3,s3,-1
    4ad4:	0009d463          	bgez	s3,4adc <_fwalk_reent+0x4c>
    4ad8:	4000                	lw	s0,0(s0)
    4ada:	bfe1                	j	4ab2 <_fwalk_reent+0x22>
    4adc:	24de                	lhu	a5,12(s1)
    4ade:	00fb7b63          	bgeu	s6,a5,4af4 <_fwalk_reent+0x64>
    4ae2:	00e49783          	lh	a5,14(s1)
    4ae6:	01778763          	beq	a5,s7,4af4 <_fwalk_reent+0x64>
    4aea:	85a6                	mv	a1,s1
    4aec:	8552                	mv	a0,s4
    4aee:	9a82                	jalr	s5
    4af0:	00a96933          	or	s2,s2,a0
    4af4:	06848493          	addi	s1,s1,104
    4af8:	bfe9                	j	4ad2 <_fwalk_reent+0x42>

00004afa <__swhatbuf_r>:
    4afa:	7119                	addi	sp,sp,-128
    4afc:	daa6                	sw	s1,116(sp)
    4afe:	84ae                	mv	s1,a1
    4b00:	00e59583          	lh	a1,14(a1)
    4b04:	dca2                	sw	s0,120(sp)
    4b06:	de86                	sw	ra,124(sp)
    4b08:	8432                	mv	s0,a2
    4b0a:	0005db63          	bgez	a1,4b20 <__swhatbuf_r+0x26>
    4b0e:	24de                	lhu	a5,12(s1)
    4b10:	0006a023          	sw	zero,0(a3)
    4b14:	0807f793          	andi	a5,a5,128
    4b18:	e785                	bnez	a5,4b40 <__swhatbuf_r+0x46>
    4b1a:	40000793          	li	a5,1024
    4b1e:	a01d                	j	4b44 <__swhatbuf_r+0x4a>
    4b20:	0830                	addi	a2,sp,24
    4b22:	c636                	sw	a3,12(sp)
    4b24:	227000ef          	jal	ra,554a <_fstat_r>
    4b28:	46b2                	lw	a3,12(sp)
    4b2a:	fe0542e3          	bltz	a0,4b0e <__swhatbuf_r+0x14>
    4b2e:	4772                	lw	a4,28(sp)
    4b30:	67bd                	lui	a5,0xf
    4b32:	8ff9                	and	a5,a5,a4
    4b34:	7779                	lui	a4,0xffffe
    4b36:	97ba                	add	a5,a5,a4
    4b38:	0017b793          	seqz	a5,a5
    4b3c:	c29c                	sw	a5,0(a3)
    4b3e:	bff1                	j	4b1a <__swhatbuf_r+0x20>
    4b40:	04000793          	li	a5,64
    4b44:	c01c                	sw	a5,0(s0)
    4b46:	50f6                	lw	ra,124(sp)
    4b48:	5466                	lw	s0,120(sp)
    4b4a:	54d6                	lw	s1,116(sp)
    4b4c:	4501                	li	a0,0
    4b4e:	6109                	addi	sp,sp,128
    4b50:	8082                	ret

00004b52 <__smakebuf_r>:
    4b52:	25de                	lhu	a5,12(a1)
    4b54:	1101                	addi	sp,sp,-32
    4b56:	cc22                	sw	s0,24(sp)
    4b58:	ce06                	sw	ra,28(sp)
    4b5a:	ca26                	sw	s1,20(sp)
    4b5c:	c84a                	sw	s2,16(sp)
    4b5e:	8b89                	andi	a5,a5,2
    4b60:	842e                	mv	s0,a1
    4b62:	cf89                	beqz	a5,4b7c <__smakebuf_r+0x2a>
    4b64:	04740793          	addi	a5,s0,71
    4b68:	c01c                	sw	a5,0(s0)
    4b6a:	c81c                	sw	a5,16(s0)
    4b6c:	4785                	li	a5,1
    4b6e:	c85c                	sw	a5,20(s0)
    4b70:	40f2                	lw	ra,28(sp)
    4b72:	4462                	lw	s0,24(sp)
    4b74:	44d2                	lw	s1,20(sp)
    4b76:	4942                	lw	s2,16(sp)
    4b78:	6105                	addi	sp,sp,32
    4b7a:	8082                	ret
    4b7c:	0074                	addi	a3,sp,12
    4b7e:	0030                	addi	a2,sp,8
    4b80:	84aa                	mv	s1,a0
    4b82:	f79ff0ef          	jal	ra,4afa <__swhatbuf_r>
    4b86:	45a2                	lw	a1,8(sp)
    4b88:	892a                	mv	s2,a0
    4b8a:	8526                	mv	a0,s1
    4b8c:	2201                	jal	4c8c <_malloc_r>
    4b8e:	e919                	bnez	a0,4ba4 <__smakebuf_r+0x52>
    4b90:	00c41783          	lh	a5,12(s0)
    4b94:	2007f713          	andi	a4,a5,512
    4b98:	ff61                	bnez	a4,4b70 <__smakebuf_r+0x1e>
    4b9a:	9bf1                	andi	a5,a5,-4
    4b9c:	0027e793          	ori	a5,a5,2
    4ba0:	a45e                	sh	a5,12(s0)
    4ba2:	b7c9                	j	4b64 <__smakebuf_r+0x12>
    4ba4:	00000797          	auipc	a5,0x0
    4ba8:	d9078793          	addi	a5,a5,-624 # 4934 <_cleanup_r>
    4bac:	d49c                	sw	a5,40(s1)
    4bae:	245e                	lhu	a5,12(s0)
    4bb0:	c008                	sw	a0,0(s0)
    4bb2:	c808                	sw	a0,16(s0)
    4bb4:	0807e793          	ori	a5,a5,128
    4bb8:	a45e                	sh	a5,12(s0)
    4bba:	47a2                	lw	a5,8(sp)
    4bbc:	c85c                	sw	a5,20(s0)
    4bbe:	47b2                	lw	a5,12(sp)
    4bc0:	cf81                	beqz	a5,4bd8 <__smakebuf_r+0x86>
    4bc2:	00e41583          	lh	a1,14(s0)
    4bc6:	8526                	mv	a0,s1
    4bc8:	1b5000ef          	jal	ra,557c <_isatty_r>
    4bcc:	c511                	beqz	a0,4bd8 <__smakebuf_r+0x86>
    4bce:	245e                	lhu	a5,12(s0)
    4bd0:	9bf1                	andi	a5,a5,-4
    4bd2:	0017e793          	ori	a5,a5,1
    4bd6:	a45e                	sh	a5,12(s0)
    4bd8:	245e                	lhu	a5,12(s0)
    4bda:	00f96933          	or	s2,s2,a5
    4bde:	01241623          	sh	s2,12(s0)
    4be2:	b779                	j	4b70 <__smakebuf_r+0x1e>

00004be4 <_free_r>:
    4be4:	c1dd                	beqz	a1,4c8a <_free_r+0xa6>
    4be6:	ffc5a783          	lw	a5,-4(a1)
    4bea:	1141                	addi	sp,sp,-16
    4bec:	c422                	sw	s0,8(sp)
    4bee:	c606                	sw	ra,12(sp)
    4bf0:	c226                	sw	s1,4(sp)
    4bf2:	ffc58413          	addi	s0,a1,-4
    4bf6:	0007d363          	bgez	a5,4bfc <_free_r+0x18>
    4bfa:	943e                	add	s0,s0,a5
    4bfc:	84aa                	mv	s1,a0
    4bfe:	1e3000ef          	jal	ra,55e0 <__malloc_lock>
    4c02:	8e418793          	addi	a5,gp,-1820 # 20000164 <__malloc_free_list>
    4c06:	439c                	lw	a5,0(a5)
    4c08:	ef81                	bnez	a5,4c20 <_free_r+0x3c>
    4c0a:	00042223          	sw	zero,4(s0)
    4c0e:	8e81a223          	sw	s0,-1820(gp) # 20000164 <__malloc_free_list>
    4c12:	4422                	lw	s0,8(sp)
    4c14:	40b2                	lw	ra,12(sp)
    4c16:	8526                	mv	a0,s1
    4c18:	4492                	lw	s1,4(sp)
    4c1a:	0141                	addi	sp,sp,16
    4c1c:	1c70006f          	j	55e2 <__malloc_unlock>
    4c20:	00f47e63          	bgeu	s0,a5,4c3c <_free_r+0x58>
    4c24:	4014                	lw	a3,0(s0)
    4c26:	00d40733          	add	a4,s0,a3
    4c2a:	00e79663          	bne	a5,a4,4c36 <_free_r+0x52>
    4c2e:	4398                	lw	a4,0(a5)
    4c30:	43dc                	lw	a5,4(a5)
    4c32:	9736                	add	a4,a4,a3
    4c34:	c018                	sw	a4,0(s0)
    4c36:	c05c                	sw	a5,4(s0)
    4c38:	bfd9                	j	4c0e <_free_r+0x2a>
    4c3a:	87ba                	mv	a5,a4
    4c3c:	43d8                	lw	a4,4(a5)
    4c3e:	c319                	beqz	a4,4c44 <_free_r+0x60>
    4c40:	fee47de3          	bgeu	s0,a4,4c3a <_free_r+0x56>
    4c44:	4394                	lw	a3,0(a5)
    4c46:	00d78633          	add	a2,a5,a3
    4c4a:	00861f63          	bne	a2,s0,4c68 <_free_r+0x84>
    4c4e:	4010                	lw	a2,0(s0)
    4c50:	96b2                	add	a3,a3,a2
    4c52:	c394                	sw	a3,0(a5)
    4c54:	00d78633          	add	a2,a5,a3
    4c58:	fac71de3          	bne	a4,a2,4c12 <_free_r+0x2e>
    4c5c:	4310                	lw	a2,0(a4)
    4c5e:	4358                	lw	a4,4(a4)
    4c60:	96b2                	add	a3,a3,a2
    4c62:	c394                	sw	a3,0(a5)
    4c64:	c3d8                	sw	a4,4(a5)
    4c66:	b775                	j	4c12 <_free_r+0x2e>
    4c68:	00c47563          	bgeu	s0,a2,4c72 <_free_r+0x8e>
    4c6c:	47b1                	li	a5,12
    4c6e:	c09c                	sw	a5,0(s1)
    4c70:	b74d                	j	4c12 <_free_r+0x2e>
    4c72:	4010                	lw	a2,0(s0)
    4c74:	00c406b3          	add	a3,s0,a2
    4c78:	00d71663          	bne	a4,a3,4c84 <_free_r+0xa0>
    4c7c:	4314                	lw	a3,0(a4)
    4c7e:	4358                	lw	a4,4(a4)
    4c80:	96b2                	add	a3,a3,a2
    4c82:	c014                	sw	a3,0(s0)
    4c84:	c058                	sw	a4,4(s0)
    4c86:	c3c0                	sw	s0,4(a5)
    4c88:	b769                	j	4c12 <_free_r+0x2e>
    4c8a:	8082                	ret

00004c8c <_malloc_r>:
    4c8c:	1101                	addi	sp,sp,-32
    4c8e:	ca26                	sw	s1,20(sp)
    4c90:	00358493          	addi	s1,a1,3
    4c94:	98f1                	andi	s1,s1,-4
    4c96:	ce06                	sw	ra,28(sp)
    4c98:	cc22                	sw	s0,24(sp)
    4c9a:	c84a                	sw	s2,16(sp)
    4c9c:	c64e                	sw	s3,12(sp)
    4c9e:	04a1                	addi	s1,s1,8
    4ca0:	47b1                	li	a5,12
    4ca2:	04f4f363          	bgeu	s1,a5,4ce8 <_malloc_r+0x5c>
    4ca6:	44b1                	li	s1,12
    4ca8:	04b4e263          	bltu	s1,a1,4cec <_malloc_r+0x60>
    4cac:	892a                	mv	s2,a0
    4cae:	133000ef          	jal	ra,55e0 <__malloc_lock>
    4cb2:	8e418793          	addi	a5,gp,-1820 # 20000164 <__malloc_free_list>
    4cb6:	4398                	lw	a4,0(a5)
    4cb8:	843a                	mv	s0,a4
    4cba:	e039                	bnez	s0,4d00 <_malloc_r+0x74>
    4cbc:	8e818793          	addi	a5,gp,-1816 # 20000168 <__malloc_sbrk_start>
    4cc0:	439c                	lw	a5,0(a5)
    4cc2:	e791                	bnez	a5,4cce <_malloc_r+0x42>
    4cc4:	4581                	li	a1,0
    4cc6:	854a                	mv	a0,s2
    4cc8:	2781                	jal	5408 <_sbrk_r>
    4cca:	8ea1a423          	sw	a0,-1816(gp) # 20000168 <__malloc_sbrk_start>
    4cce:	85a6                	mv	a1,s1
    4cd0:	854a                	mv	a0,s2
    4cd2:	2f1d                	jal	5408 <_sbrk_r>
    4cd4:	59fd                	li	s3,-1
    4cd6:	07351963          	bne	a0,s3,4d48 <_malloc_r+0xbc>
    4cda:	47b1                	li	a5,12
    4cdc:	00f92023          	sw	a5,0(s2)
    4ce0:	854a                	mv	a0,s2
    4ce2:	101000ef          	jal	ra,55e2 <__malloc_unlock>
    4ce6:	a029                	j	4cf0 <_malloc_r+0x64>
    4ce8:	fc04d0e3          	bgez	s1,4ca8 <_malloc_r+0x1c>
    4cec:	47b1                	li	a5,12
    4cee:	c11c                	sw	a5,0(a0)
    4cf0:	4501                	li	a0,0
    4cf2:	40f2                	lw	ra,28(sp)
    4cf4:	4462                	lw	s0,24(sp)
    4cf6:	44d2                	lw	s1,20(sp)
    4cf8:	4942                	lw	s2,16(sp)
    4cfa:	49b2                	lw	s3,12(sp)
    4cfc:	6105                	addi	sp,sp,32
    4cfe:	8082                	ret
    4d00:	401c                	lw	a5,0(s0)
    4d02:	8f85                	sub	a5,a5,s1
    4d04:	0207cf63          	bltz	a5,4d42 <_malloc_r+0xb6>
    4d08:	46ad                	li	a3,11
    4d0a:	00f6f663          	bgeu	a3,a5,4d16 <_malloc_r+0x8a>
    4d0e:	c01c                	sw	a5,0(s0)
    4d10:	943e                	add	s0,s0,a5
    4d12:	c004                	sw	s1,0(s0)
    4d14:	a031                	j	4d20 <_malloc_r+0x94>
    4d16:	405c                	lw	a5,4(s0)
    4d18:	02871363          	bne	a4,s0,4d3e <_malloc_r+0xb2>
    4d1c:	8ef1a223          	sw	a5,-1820(gp) # 20000164 <__malloc_free_list>
    4d20:	854a                	mv	a0,s2
    4d22:	0c1000ef          	jal	ra,55e2 <__malloc_unlock>
    4d26:	00b40513          	addi	a0,s0,11
    4d2a:	00440793          	addi	a5,s0,4
    4d2e:	9961                	andi	a0,a0,-8
    4d30:	40f50733          	sub	a4,a0,a5
    4d34:	df5d                	beqz	a4,4cf2 <_malloc_r+0x66>
    4d36:	943a                	add	s0,s0,a4
    4d38:	8f89                	sub	a5,a5,a0
    4d3a:	c01c                	sw	a5,0(s0)
    4d3c:	bf5d                	j	4cf2 <_malloc_r+0x66>
    4d3e:	c35c                	sw	a5,4(a4)
    4d40:	b7c5                	j	4d20 <_malloc_r+0x94>
    4d42:	8722                	mv	a4,s0
    4d44:	4040                	lw	s0,4(s0)
    4d46:	bf95                	j	4cba <_malloc_r+0x2e>
    4d48:	00350413          	addi	s0,a0,3
    4d4c:	9871                	andi	s0,s0,-4
    4d4e:	fc8502e3          	beq	a0,s0,4d12 <_malloc_r+0x86>
    4d52:	40a405b3          	sub	a1,s0,a0
    4d56:	854a                	mv	a0,s2
    4d58:	2d45                	jal	5408 <_sbrk_r>
    4d5a:	fb351ce3          	bne	a0,s3,4d12 <_malloc_r+0x86>
    4d5e:	bfb5                	j	4cda <_malloc_r+0x4e>

00004d60 <__sfputc_r>:
    4d60:	461c                	lw	a5,8(a2)
    4d62:	17fd                	addi	a5,a5,-1
    4d64:	c61c                	sw	a5,8(a2)
    4d66:	0007da63          	bgez	a5,4d7a <__sfputc_r+0x1a>
    4d6a:	4e18                	lw	a4,24(a2)
    4d6c:	00e7c563          	blt	a5,a4,4d76 <__sfputc_r+0x16>
    4d70:	47a9                	li	a5,10
    4d72:	00f59463          	bne	a1,a5,4d7a <__sfputc_r+0x1a>
    4d76:	80bff06f          	j	4580 <__swbuf_r>
    4d7a:	421c                	lw	a5,0(a2)
    4d7c:	852e                	mv	a0,a1
    4d7e:	00178713          	addi	a4,a5,1
    4d82:	c218                	sw	a4,0(a2)
    4d84:	a38c                	sb	a1,0(a5)
    4d86:	8082                	ret

00004d88 <__sfputs_r>:
    4d88:	1101                	addi	sp,sp,-32
    4d8a:	cc22                	sw	s0,24(sp)
    4d8c:	ca26                	sw	s1,20(sp)
    4d8e:	c84a                	sw	s2,16(sp)
    4d90:	c64e                	sw	s3,12(sp)
    4d92:	c452                	sw	s4,8(sp)
    4d94:	ce06                	sw	ra,28(sp)
    4d96:	892a                	mv	s2,a0
    4d98:	89ae                	mv	s3,a1
    4d9a:	8432                	mv	s0,a2
    4d9c:	00d604b3          	add	s1,a2,a3
    4da0:	5a7d                	li	s4,-1
    4da2:	00941463          	bne	s0,s1,4daa <__sfputs_r+0x22>
    4da6:	4501                	li	a0,0
    4da8:	a809                	j	4dba <__sfputs_r+0x32>
    4daa:	200c                	lbu	a1,0(s0)
    4dac:	864e                	mv	a2,s3
    4dae:	854a                	mv	a0,s2
    4db0:	fb1ff0ef          	jal	ra,4d60 <__sfputc_r>
    4db4:	0405                	addi	s0,s0,1
    4db6:	ff4516e3          	bne	a0,s4,4da2 <__sfputs_r+0x1a>
    4dba:	40f2                	lw	ra,28(sp)
    4dbc:	4462                	lw	s0,24(sp)
    4dbe:	44d2                	lw	s1,20(sp)
    4dc0:	4942                	lw	s2,16(sp)
    4dc2:	49b2                	lw	s3,12(sp)
    4dc4:	4a22                	lw	s4,8(sp)
    4dc6:	6105                	addi	sp,sp,32
    4dc8:	8082                	ret

00004dca <_vfiprintf_r>:
    4dca:	7135                	addi	sp,sp,-160
    4dcc:	cd22                	sw	s0,152(sp)
    4dce:	cb26                	sw	s1,148(sp)
    4dd0:	c94a                	sw	s2,144(sp)
    4dd2:	c74e                	sw	s3,140(sp)
    4dd4:	cf06                	sw	ra,156(sp)
    4dd6:	c552                	sw	s4,136(sp)
    4dd8:	c356                	sw	s5,132(sp)
    4dda:	c15a                	sw	s6,128(sp)
    4ddc:	dede                	sw	s7,124(sp)
    4dde:	dce2                	sw	s8,120(sp)
    4de0:	dae6                	sw	s9,116(sp)
    4de2:	89aa                	mv	s3,a0
    4de4:	84ae                	mv	s1,a1
    4de6:	8932                	mv	s2,a2
    4de8:	8436                	mv	s0,a3
    4dea:	c509                	beqz	a0,4df4 <_vfiprintf_r+0x2a>
    4dec:	4d1c                	lw	a5,24(a0)
    4dee:	e399                	bnez	a5,4df4 <_vfiprintf_r+0x2a>
    4df0:	b95ff0ef          	jal	ra,4984 <__sinit>
    4df4:	00001797          	auipc	a5,0x1
    4df8:	15478793          	addi	a5,a5,340 # 5f48 <__sf_fake_stdin>
    4dfc:	0cf49963          	bne	s1,a5,4ece <_vfiprintf_r+0x104>
    4e00:	0049a483          	lw	s1,4(s3)
    4e04:	24de                	lhu	a5,12(s1)
    4e06:	8ba1                	andi	a5,a5,8
    4e08:	c7ed                	beqz	a5,4ef2 <_vfiprintf_r+0x128>
    4e0a:	489c                	lw	a5,16(s1)
    4e0c:	c3fd                	beqz	a5,4ef2 <_vfiprintf_r+0x128>
    4e0e:	02000793          	li	a5,32
    4e12:	02f104a3          	sb	a5,41(sp)
    4e16:	03000793          	li	a5,48
    4e1a:	d202                	sw	zero,36(sp)
    4e1c:	02f10523          	sb	a5,42(sp)
    4e20:	c622                	sw	s0,12(sp)
    4e22:	02500b93          	li	s7,37
    4e26:	00001a97          	auipc	s5,0x1
    4e2a:	162a8a93          	addi	s5,s5,354 # 5f88 <__sf_fake_stdout+0x20>
    4e2e:	4c05                	li	s8,1
    4e30:	4b29                	li	s6,10
    4e32:	844a                	mv	s0,s2
    4e34:	201c                	lbu	a5,0(s0)
    4e36:	c399                	beqz	a5,4e3c <_vfiprintf_r+0x72>
    4e38:	0f779063          	bne	a5,s7,4f18 <_vfiprintf_r+0x14e>
    4e3c:	41240cb3          	sub	s9,s0,s2
    4e40:	000c8e63          	beqz	s9,4e5c <_vfiprintf_r+0x92>
    4e44:	86e6                	mv	a3,s9
    4e46:	864a                	mv	a2,s2
    4e48:	85a6                	mv	a1,s1
    4e4a:	854e                	mv	a0,s3
    4e4c:	f3dff0ef          	jal	ra,4d88 <__sfputs_r>
    4e50:	57fd                	li	a5,-1
    4e52:	1ef50263          	beq	a0,a5,5036 <_vfiprintf_r+0x26c>
    4e56:	5692                	lw	a3,36(sp)
    4e58:	96e6                	add	a3,a3,s9
    4e5a:	d236                	sw	a3,36(sp)
    4e5c:	201c                	lbu	a5,0(s0)
    4e5e:	1c078c63          	beqz	a5,5036 <_vfiprintf_r+0x26c>
    4e62:	57fd                	li	a5,-1
    4e64:	00140913          	addi	s2,s0,1
    4e68:	c802                	sw	zero,16(sp)
    4e6a:	ce02                	sw	zero,28(sp)
    4e6c:	ca3e                	sw	a5,20(sp)
    4e6e:	cc02                	sw	zero,24(sp)
    4e70:	040109a3          	sb	zero,83(sp)
    4e74:	d482                	sw	zero,104(sp)
    4e76:	00094583          	lbu	a1,0(s2)
    4e7a:	4615                	li	a2,5
    4e7c:	8556                	mv	a0,s5
    4e7e:	d18ff0ef          	jal	ra,4396 <memchr>
    4e82:	00190413          	addi	s0,s2,1
    4e86:	47c2                	lw	a5,16(sp)
    4e88:	e951                	bnez	a0,4f1c <_vfiprintf_r+0x152>
    4e8a:	0107f713          	andi	a4,a5,16
    4e8e:	c709                	beqz	a4,4e98 <_vfiprintf_r+0xce>
    4e90:	02000713          	li	a4,32
    4e94:	04e109a3          	sb	a4,83(sp)
    4e98:	0087f713          	andi	a4,a5,8
    4e9c:	c709                	beqz	a4,4ea6 <_vfiprintf_r+0xdc>
    4e9e:	02b00713          	li	a4,43
    4ea2:	04e109a3          	sb	a4,83(sp)
    4ea6:	00094683          	lbu	a3,0(s2)
    4eaa:	02a00713          	li	a4,42
    4eae:	06e68f63          	beq	a3,a4,4f2c <_vfiprintf_r+0x162>
    4eb2:	47f2                	lw	a5,28(sp)
    4eb4:	844a                	mv	s0,s2
    4eb6:	4681                	li	a3,0
    4eb8:	4625                	li	a2,9
    4eba:	2018                	lbu	a4,0(s0)
    4ebc:	00140593          	addi	a1,s0,1
    4ec0:	fd070713          	addi	a4,a4,-48 # ffffdfd0 <_eusrstack+0xdfff5fd0>
    4ec4:	0ae67763          	bgeu	a2,a4,4f72 <_vfiprintf_r+0x1a8>
    4ec8:	cab5                	beqz	a3,4f3c <_vfiprintf_r+0x172>
    4eca:	ce3e                	sw	a5,28(sp)
    4ecc:	a885                	j	4f3c <_vfiprintf_r+0x172>
    4ece:	00001797          	auipc	a5,0x1
    4ed2:	09a78793          	addi	a5,a5,154 # 5f68 <__sf_fake_stdout>
    4ed6:	00f49563          	bne	s1,a5,4ee0 <_vfiprintf_r+0x116>
    4eda:	0089a483          	lw	s1,8(s3)
    4ede:	b71d                	j	4e04 <_vfiprintf_r+0x3a>
    4ee0:	00001797          	auipc	a5,0x1
    4ee4:	04878793          	addi	a5,a5,72 # 5f28 <__sf_fake_stderr>
    4ee8:	f0f49ee3          	bne	s1,a5,4e04 <_vfiprintf_r+0x3a>
    4eec:	00c9a483          	lw	s1,12(s3)
    4ef0:	bf11                	j	4e04 <_vfiprintf_r+0x3a>
    4ef2:	85a6                	mv	a1,s1
    4ef4:	854e                	mv	a0,s3
    4ef6:	f46ff0ef          	jal	ra,463c <__swsetup_r>
    4efa:	d911                	beqz	a0,4e0e <_vfiprintf_r+0x44>
    4efc:	557d                	li	a0,-1
    4efe:	40fa                	lw	ra,156(sp)
    4f00:	446a                	lw	s0,152(sp)
    4f02:	44da                	lw	s1,148(sp)
    4f04:	494a                	lw	s2,144(sp)
    4f06:	49ba                	lw	s3,140(sp)
    4f08:	4a2a                	lw	s4,136(sp)
    4f0a:	4a9a                	lw	s5,132(sp)
    4f0c:	4b0a                	lw	s6,128(sp)
    4f0e:	5bf6                	lw	s7,124(sp)
    4f10:	5c66                	lw	s8,120(sp)
    4f12:	5cd6                	lw	s9,116(sp)
    4f14:	610d                	addi	sp,sp,160
    4f16:	8082                	ret
    4f18:	0405                	addi	s0,s0,1
    4f1a:	bf29                	j	4e34 <_vfiprintf_r+0x6a>
    4f1c:	41550533          	sub	a0,a0,s5
    4f20:	00ac1533          	sll	a0,s8,a0
    4f24:	8fc9                	or	a5,a5,a0
    4f26:	c83e                	sw	a5,16(sp)
    4f28:	8922                	mv	s2,s0
    4f2a:	b7b1                	j	4e76 <_vfiprintf_r+0xac>
    4f2c:	4732                	lw	a4,12(sp)
    4f2e:	00470693          	addi	a3,a4,4
    4f32:	4318                	lw	a4,0(a4)
    4f34:	c636                	sw	a3,12(sp)
    4f36:	02074763          	bltz	a4,4f64 <_vfiprintf_r+0x19a>
    4f3a:	ce3a                	sw	a4,28(sp)
    4f3c:	2018                	lbu	a4,0(s0)
    4f3e:	02e00793          	li	a5,46
    4f42:	04f71d63          	bne	a4,a5,4f9c <_vfiprintf_r+0x1d2>
    4f46:	3018                	lbu	a4,1(s0)
    4f48:	02a00793          	li	a5,42
    4f4c:	02f71b63          	bne	a4,a5,4f82 <_vfiprintf_r+0x1b8>
    4f50:	47b2                	lw	a5,12(sp)
    4f52:	0409                	addi	s0,s0,2
    4f54:	00478713          	addi	a4,a5,4
    4f58:	439c                	lw	a5,0(a5)
    4f5a:	c63a                	sw	a4,12(sp)
    4f5c:	0207c163          	bltz	a5,4f7e <_vfiprintf_r+0x1b4>
    4f60:	ca3e                	sw	a5,20(sp)
    4f62:	a82d                	j	4f9c <_vfiprintf_r+0x1d2>
    4f64:	40e00733          	neg	a4,a4
    4f68:	0027e793          	ori	a5,a5,2
    4f6c:	ce3a                	sw	a4,28(sp)
    4f6e:	c83e                	sw	a5,16(sp)
    4f70:	b7f1                	j	4f3c <_vfiprintf_r+0x172>
    4f72:	036787b3          	mul	a5,a5,s6
    4f76:	4685                	li	a3,1
    4f78:	842e                	mv	s0,a1
    4f7a:	97ba                	add	a5,a5,a4
    4f7c:	bf3d                	j	4eba <_vfiprintf_r+0xf0>
    4f7e:	57fd                	li	a5,-1
    4f80:	b7c5                	j	4f60 <_vfiprintf_r+0x196>
    4f82:	0405                	addi	s0,s0,1
    4f84:	ca02                	sw	zero,20(sp)
    4f86:	4681                	li	a3,0
    4f88:	4781                	li	a5,0
    4f8a:	4625                	li	a2,9
    4f8c:	2018                	lbu	a4,0(s0)
    4f8e:	00140593          	addi	a1,s0,1
    4f92:	fd070713          	addi	a4,a4,-48
    4f96:	06e67663          	bgeu	a2,a4,5002 <_vfiprintf_r+0x238>
    4f9a:	f2f9                	bnez	a3,4f60 <_vfiprintf_r+0x196>
    4f9c:	200c                	lbu	a1,0(s0)
    4f9e:	460d                	li	a2,3
    4fa0:	00001517          	auipc	a0,0x1
    4fa4:	ff050513          	addi	a0,a0,-16 # 5f90 <__sf_fake_stdout+0x28>
    4fa8:	beeff0ef          	jal	ra,4396 <memchr>
    4fac:	cd11                	beqz	a0,4fc8 <_vfiprintf_r+0x1fe>
    4fae:	00001797          	auipc	a5,0x1
    4fb2:	fe278793          	addi	a5,a5,-30 # 5f90 <__sf_fake_stdout+0x28>
    4fb6:	8d1d                	sub	a0,a0,a5
    4fb8:	04000793          	li	a5,64
    4fbc:	00a797b3          	sll	a5,a5,a0
    4fc0:	4542                	lw	a0,16(sp)
    4fc2:	0405                	addi	s0,s0,1
    4fc4:	8d5d                	or	a0,a0,a5
    4fc6:	c82a                	sw	a0,16(sp)
    4fc8:	200c                	lbu	a1,0(s0)
    4fca:	4619                	li	a2,6
    4fcc:	00001517          	auipc	a0,0x1
    4fd0:	fc850513          	addi	a0,a0,-56 # 5f94 <__sf_fake_stdout+0x2c>
    4fd4:	00140913          	addi	s2,s0,1
    4fd8:	02b10423          	sb	a1,40(sp)
    4fdc:	bbaff0ef          	jal	ra,4396 <memchr>
    4fe0:	c135                	beqz	a0,5044 <_vfiprintf_r+0x27a>
    4fe2:	ffffb797          	auipc	a5,0xffffb
    4fe6:	01e78793          	addi	a5,a5,30 # 0 <_sinit>
    4fea:	e795                	bnez	a5,5016 <_vfiprintf_r+0x24c>
    4fec:	4742                	lw	a4,16(sp)
    4fee:	47b2                	lw	a5,12(sp)
    4ff0:	10077713          	andi	a4,a4,256
    4ff4:	cf09                	beqz	a4,500e <_vfiprintf_r+0x244>
    4ff6:	0791                	addi	a5,a5,4
    4ff8:	c63e                	sw	a5,12(sp)
    4ffa:	5792                	lw	a5,36(sp)
    4ffc:	97d2                	add	a5,a5,s4
    4ffe:	d23e                	sw	a5,36(sp)
    5000:	bd0d                	j	4e32 <_vfiprintf_r+0x68>
    5002:	036787b3          	mul	a5,a5,s6
    5006:	4685                	li	a3,1
    5008:	842e                	mv	s0,a1
    500a:	97ba                	add	a5,a5,a4
    500c:	b741                	j	4f8c <_vfiprintf_r+0x1c2>
    500e:	079d                	addi	a5,a5,7
    5010:	9be1                	andi	a5,a5,-8
    5012:	07a1                	addi	a5,a5,8
    5014:	b7d5                	j	4ff8 <_vfiprintf_r+0x22e>
    5016:	0078                	addi	a4,sp,12
    5018:	00000697          	auipc	a3,0x0
    501c:	d7068693          	addi	a3,a3,-656 # 4d88 <__sfputs_r>
    5020:	8626                	mv	a2,s1
    5022:	080c                	addi	a1,sp,16
    5024:	854e                	mv	a0,s3
    5026:	00000097          	auipc	ra,0x0
    502a:	000000e7          	jalr	zero # 0 <_sinit>
    502e:	57fd                	li	a5,-1
    5030:	8a2a                	mv	s4,a0
    5032:	fcf514e3          	bne	a0,a5,4ffa <_vfiprintf_r+0x230>
    5036:	24de                	lhu	a5,12(s1)
    5038:	0407f793          	andi	a5,a5,64
    503c:	ec0790e3          	bnez	a5,4efc <_vfiprintf_r+0x132>
    5040:	5512                	lw	a0,36(sp)
    5042:	bd75                	j	4efe <_vfiprintf_r+0x134>
    5044:	0078                	addi	a4,sp,12
    5046:	00000697          	auipc	a3,0x0
    504a:	d4268693          	addi	a3,a3,-702 # 4d88 <__sfputs_r>
    504e:	8626                	mv	a2,s1
    5050:	080c                	addi	a1,sp,16
    5052:	854e                	mv	a0,s3
    5054:	2a01                	jal	5164 <_printf_i>
    5056:	bfe1                	j	502e <_vfiprintf_r+0x264>

00005058 <_printf_common>:
    5058:	7179                	addi	sp,sp,-48
    505a:	ca56                	sw	s5,20(sp)
    505c:	499c                	lw	a5,16(a1)
    505e:	8aba                	mv	s5,a4
    5060:	4598                	lw	a4,8(a1)
    5062:	d422                	sw	s0,40(sp)
    5064:	d226                	sw	s1,36(sp)
    5066:	ce4e                	sw	s3,28(sp)
    5068:	cc52                	sw	s4,24(sp)
    506a:	d606                	sw	ra,44(sp)
    506c:	d04a                	sw	s2,32(sp)
    506e:	c85a                	sw	s6,16(sp)
    5070:	c65e                	sw	s7,12(sp)
    5072:	89aa                	mv	s3,a0
    5074:	842e                	mv	s0,a1
    5076:	84b2                	mv	s1,a2
    5078:	8a36                	mv	s4,a3
    507a:	00e7d363          	bge	a5,a4,5080 <_printf_common+0x28>
    507e:	87ba                	mv	a5,a4
    5080:	c09c                	sw	a5,0(s1)
    5082:	04344703          	lbu	a4,67(s0)
    5086:	c319                	beqz	a4,508c <_printf_common+0x34>
    5088:	0785                	addi	a5,a5,1
    508a:	c09c                	sw	a5,0(s1)
    508c:	401c                	lw	a5,0(s0)
    508e:	0207f793          	andi	a5,a5,32
    5092:	c781                	beqz	a5,509a <_printf_common+0x42>
    5094:	409c                	lw	a5,0(s1)
    5096:	0789                	addi	a5,a5,2
    5098:	c09c                	sw	a5,0(s1)
    509a:	00042903          	lw	s2,0(s0)
    509e:	00697913          	andi	s2,s2,6
    50a2:	00091a63          	bnez	s2,50b6 <_printf_common+0x5e>
    50a6:	01940b13          	addi	s6,s0,25
    50aa:	5bfd                	li	s7,-1
    50ac:	445c                	lw	a5,12(s0)
    50ae:	4098                	lw	a4,0(s1)
    50b0:	8f99                	sub	a5,a5,a4
    50b2:	04f94c63          	blt	s2,a5,510a <_printf_common+0xb2>
    50b6:	401c                	lw	a5,0(s0)
    50b8:	04344683          	lbu	a3,67(s0)
    50bc:	0207f793          	andi	a5,a5,32
    50c0:	00d036b3          	snez	a3,a3
    50c4:	eba5                	bnez	a5,5134 <_printf_common+0xdc>
    50c6:	04340613          	addi	a2,s0,67
    50ca:	85d2                	mv	a1,s4
    50cc:	854e                	mv	a0,s3
    50ce:	9a82                	jalr	s5
    50d0:	57fd                	li	a5,-1
    50d2:	04f50363          	beq	a0,a5,5118 <_printf_common+0xc0>
    50d6:	401c                	lw	a5,0(s0)
    50d8:	4611                	li	a2,4
    50da:	4098                	lw	a4,0(s1)
    50dc:	8b99                	andi	a5,a5,6
    50de:	4454                	lw	a3,12(s0)
    50e0:	4481                	li	s1,0
    50e2:	00c79763          	bne	a5,a2,50f0 <_printf_common+0x98>
    50e6:	40e684b3          	sub	s1,a3,a4
    50ea:	0004d363          	bgez	s1,50f0 <_printf_common+0x98>
    50ee:	4481                	li	s1,0
    50f0:	441c                	lw	a5,8(s0)
    50f2:	4818                	lw	a4,16(s0)
    50f4:	00f75463          	bge	a4,a5,50fc <_printf_common+0xa4>
    50f8:	8f99                	sub	a5,a5,a4
    50fa:	94be                	add	s1,s1,a5
    50fc:	4901                	li	s2,0
    50fe:	0469                	addi	s0,s0,26
    5100:	5b7d                	li	s6,-1
    5102:	05249863          	bne	s1,s2,5152 <_printf_common+0xfa>
    5106:	4501                	li	a0,0
    5108:	a809                	j	511a <_printf_common+0xc2>
    510a:	4685                	li	a3,1
    510c:	865a                	mv	a2,s6
    510e:	85d2                	mv	a1,s4
    5110:	854e                	mv	a0,s3
    5112:	9a82                	jalr	s5
    5114:	01751e63          	bne	a0,s7,5130 <_printf_common+0xd8>
    5118:	557d                	li	a0,-1
    511a:	50b2                	lw	ra,44(sp)
    511c:	5422                	lw	s0,40(sp)
    511e:	5492                	lw	s1,36(sp)
    5120:	5902                	lw	s2,32(sp)
    5122:	49f2                	lw	s3,28(sp)
    5124:	4a62                	lw	s4,24(sp)
    5126:	4ad2                	lw	s5,20(sp)
    5128:	4b42                	lw	s6,16(sp)
    512a:	4bb2                	lw	s7,12(sp)
    512c:	6145                	addi	sp,sp,48
    512e:	8082                	ret
    5130:	0905                	addi	s2,s2,1
    5132:	bfad                	j	50ac <_printf_common+0x54>
    5134:	00d40733          	add	a4,s0,a3
    5138:	03000613          	li	a2,48
    513c:	04c701a3          	sb	a2,67(a4)
    5140:	04544703          	lbu	a4,69(s0)
    5144:	00168793          	addi	a5,a3,1
    5148:	97a2                	add	a5,a5,s0
    514a:	0689                	addi	a3,a3,2
    514c:	04e781a3          	sb	a4,67(a5)
    5150:	bf9d                	j	50c6 <_printf_common+0x6e>
    5152:	4685                	li	a3,1
    5154:	8622                	mv	a2,s0
    5156:	85d2                	mv	a1,s4
    5158:	854e                	mv	a0,s3
    515a:	9a82                	jalr	s5
    515c:	fb650ee3          	beq	a0,s6,5118 <_printf_common+0xc0>
    5160:	0905                	addi	s2,s2,1
    5162:	b745                	j	5102 <_printf_common+0xaa>

00005164 <_printf_i>:
    5164:	7179                	addi	sp,sp,-48
    5166:	d422                	sw	s0,40(sp)
    5168:	d226                	sw	s1,36(sp)
    516a:	d04a                	sw	s2,32(sp)
    516c:	ce4e                	sw	s3,28(sp)
    516e:	d606                	sw	ra,44(sp)
    5170:	cc52                	sw	s4,24(sp)
    5172:	ca56                	sw	s5,20(sp)
    5174:	c85a                	sw	s6,16(sp)
    5176:	89b6                	mv	s3,a3
    5178:	2d94                	lbu	a3,24(a1)
    517a:	06900793          	li	a5,105
    517e:	8932                	mv	s2,a2
    5180:	84aa                	mv	s1,a0
    5182:	842e                	mv	s0,a1
    5184:	04358613          	addi	a2,a1,67
    5188:	02f68d63          	beq	a3,a5,51c2 <_printf_i+0x5e>
    518c:	06d7e263          	bltu	a5,a3,51f0 <_printf_i+0x8c>
    5190:	05800793          	li	a5,88
    5194:	18f68763          	beq	a3,a5,5322 <_printf_i+0x1be>
    5198:	00d7ed63          	bltu	a5,a3,51b2 <_printf_i+0x4e>
    519c:	20068f63          	beqz	a3,53ba <_printf_i+0x256>
    51a0:	04300793          	li	a5,67
    51a4:	0af68f63          	beq	a3,a5,5262 <_printf_i+0xfe>
    51a8:	04240a93          	addi	s5,s0,66
    51ac:	04d40123          	sb	a3,66(s0)
    51b0:	a0d1                	j	5274 <_printf_i+0x110>
    51b2:	06300793          	li	a5,99
    51b6:	0af68663          	beq	a3,a5,5262 <_printf_i+0xfe>
    51ba:	06400793          	li	a5,100
    51be:	fef695e3          	bne	a3,a5,51a8 <_printf_i+0x44>
    51c2:	401c                	lw	a5,0(s0)
    51c4:	4308                	lw	a0,0(a4)
    51c6:	0807f693          	andi	a3,a5,128
    51ca:	00450593          	addi	a1,a0,4
    51ce:	c6cd                	beqz	a3,5278 <_printf_i+0x114>
    51d0:	411c                	lw	a5,0(a0)
    51d2:	c30c                	sw	a1,0(a4)
    51d4:	0007d863          	bgez	a5,51e4 <_printf_i+0x80>
    51d8:	02d00713          	li	a4,45
    51dc:	40f007b3          	neg	a5,a5
    51e0:	04e401a3          	sb	a4,67(s0)
    51e4:	00001697          	auipc	a3,0x1
    51e8:	db868693          	addi	a3,a3,-584 # 5f9c <__sf_fake_stdout+0x34>
    51ec:	4729                	li	a4,10
    51ee:	a86d                	j	52a8 <_printf_i+0x144>
    51f0:	07000793          	li	a5,112
    51f4:	16f68363          	beq	a3,a5,535a <_printf_i+0x1f6>
    51f8:	02d7e563          	bltu	a5,a3,5222 <_printf_i+0xbe>
    51fc:	06e00793          	li	a5,110
    5200:	18f68a63          	beq	a3,a5,5394 <_printf_i+0x230>
    5204:	06f00793          	li	a5,111
    5208:	faf690e3          	bne	a3,a5,51a8 <_printf_i+0x44>
    520c:	400c                	lw	a1,0(s0)
    520e:	431c                	lw	a5,0(a4)
    5210:	0805f813          	andi	a6,a1,128
    5214:	00478513          	addi	a0,a5,4
    5218:	06080863          	beqz	a6,5288 <_printf_i+0x124>
    521c:	c308                	sw	a0,0(a4)
    521e:	439c                	lw	a5,0(a5)
    5220:	a88d                	j	5292 <_printf_i+0x12e>
    5222:	07500793          	li	a5,117
    5226:	fef683e3          	beq	a3,a5,520c <_printf_i+0xa8>
    522a:	07800793          	li	a5,120
    522e:	12f68a63          	beq	a3,a5,5362 <_printf_i+0x1fe>
    5232:	07300793          	li	a5,115
    5236:	f6f699e3          	bne	a3,a5,51a8 <_printf_i+0x44>
    523a:	431c                	lw	a5,0(a4)
    523c:	41d0                	lw	a2,4(a1)
    523e:	4581                	li	a1,0
    5240:	00478693          	addi	a3,a5,4
    5244:	c314                	sw	a3,0(a4)
    5246:	0007aa83          	lw	s5,0(a5)
    524a:	8556                	mv	a0,s5
    524c:	94aff0ef          	jal	ra,4396 <memchr>
    5250:	c501                	beqz	a0,5258 <_printf_i+0xf4>
    5252:	41550533          	sub	a0,a0,s5
    5256:	c048                	sw	a0,4(s0)
    5258:	405c                	lw	a5,4(s0)
    525a:	c81c                	sw	a5,16(s0)
    525c:	040401a3          	sb	zero,67(s0)
    5260:	a861                	j	52f8 <_printf_i+0x194>
    5262:	431c                	lw	a5,0(a4)
    5264:	04240a93          	addi	s5,s0,66
    5268:	00478693          	addi	a3,a5,4
    526c:	439c                	lw	a5,0(a5)
    526e:	c314                	sw	a3,0(a4)
    5270:	04f40123          	sb	a5,66(s0)
    5274:	4785                	li	a5,1
    5276:	b7d5                	j	525a <_printf_i+0xf6>
    5278:	0407f693          	andi	a3,a5,64
    527c:	411c                	lw	a5,0(a0)
    527e:	c30c                	sw	a1,0(a4)
    5280:	dab1                	beqz	a3,51d4 <_printf_i+0x70>
    5282:	07c2                	slli	a5,a5,0x10
    5284:	87c1                	srai	a5,a5,0x10
    5286:	b7b9                	j	51d4 <_printf_i+0x70>
    5288:	0405f593          	andi	a1,a1,64
    528c:	c308                	sw	a0,0(a4)
    528e:	d9c1                	beqz	a1,521e <_printf_i+0xba>
    5290:	239e                	lhu	a5,0(a5)
    5292:	06f00713          	li	a4,111
    5296:	0ee68763          	beq	a3,a4,5384 <_printf_i+0x220>
    529a:	00001697          	auipc	a3,0x1
    529e:	d0268693          	addi	a3,a3,-766 # 5f9c <__sf_fake_stdout+0x34>
    52a2:	4729                	li	a4,10
    52a4:	040401a3          	sb	zero,67(s0)
    52a8:	404c                	lw	a1,4(s0)
    52aa:	c40c                	sw	a1,8(s0)
    52ac:	0005c563          	bltz	a1,52b6 <_printf_i+0x152>
    52b0:	4008                	lw	a0,0(s0)
    52b2:	996d                	andi	a0,a0,-5
    52b4:	c008                	sw	a0,0(s0)
    52b6:	e399                	bnez	a5,52bc <_printf_i+0x158>
    52b8:	8ab2                	mv	s5,a2
    52ba:	cd89                	beqz	a1,52d4 <_printf_i+0x170>
    52bc:	8ab2                	mv	s5,a2
    52be:	02e7f5b3          	remu	a1,a5,a4
    52c2:	1afd                	addi	s5,s5,-1
    52c4:	95b6                	add	a1,a1,a3
    52c6:	218c                	lbu	a1,0(a1)
    52c8:	00ba8023          	sb	a1,0(s5)
    52cc:	02e7d5b3          	divu	a1,a5,a4
    52d0:	0ce7f063          	bgeu	a5,a4,5390 <_printf_i+0x22c>
    52d4:	47a1                	li	a5,8
    52d6:	00f71e63          	bne	a4,a5,52f2 <_printf_i+0x18e>
    52da:	401c                	lw	a5,0(s0)
    52dc:	8b85                	andi	a5,a5,1
    52de:	cb91                	beqz	a5,52f2 <_printf_i+0x18e>
    52e0:	4058                	lw	a4,4(s0)
    52e2:	481c                	lw	a5,16(s0)
    52e4:	00e7c763          	blt	a5,a4,52f2 <_printf_i+0x18e>
    52e8:	03000793          	li	a5,48
    52ec:	fefa8fa3          	sb	a5,-1(s5)
    52f0:	1afd                	addi	s5,s5,-1
    52f2:	41560633          	sub	a2,a2,s5
    52f6:	c810                	sw	a2,16(s0)
    52f8:	874e                	mv	a4,s3
    52fa:	86ca                	mv	a3,s2
    52fc:	0070                	addi	a2,sp,12
    52fe:	85a2                	mv	a1,s0
    5300:	8526                	mv	a0,s1
    5302:	d57ff0ef          	jal	ra,5058 <_printf_common>
    5306:	5a7d                	li	s4,-1
    5308:	0b451d63          	bne	a0,s4,53c2 <_printf_i+0x25e>
    530c:	557d                	li	a0,-1
    530e:	50b2                	lw	ra,44(sp)
    5310:	5422                	lw	s0,40(sp)
    5312:	5492                	lw	s1,36(sp)
    5314:	5902                	lw	s2,32(sp)
    5316:	49f2                	lw	s3,28(sp)
    5318:	4a62                	lw	s4,24(sp)
    531a:	4ad2                	lw	s5,20(sp)
    531c:	4b42                	lw	s6,16(sp)
    531e:	6145                	addi	sp,sp,48
    5320:	8082                	ret
    5322:	04d582a3          	sb	a3,69(a1)
    5326:	00001697          	auipc	a3,0x1
    532a:	c7668693          	addi	a3,a3,-906 # 5f9c <__sf_fake_stdout+0x34>
    532e:	400c                	lw	a1,0(s0)
    5330:	4308                	lw	a0,0(a4)
    5332:	0805f813          	andi	a6,a1,128
    5336:	411c                	lw	a5,0(a0)
    5338:	0511                	addi	a0,a0,4
    533a:	02080d63          	beqz	a6,5374 <_printf_i+0x210>
    533e:	c308                	sw	a0,0(a4)
    5340:	0015f713          	andi	a4,a1,1
    5344:	c701                	beqz	a4,534c <_printf_i+0x1e8>
    5346:	0205e593          	ori	a1,a1,32
    534a:	c00c                	sw	a1,0(s0)
    534c:	4741                	li	a4,16
    534e:	fbb9                	bnez	a5,52a4 <_printf_i+0x140>
    5350:	400c                	lw	a1,0(s0)
    5352:	fdf5f593          	andi	a1,a1,-33
    5356:	c00c                	sw	a1,0(s0)
    5358:	b7b1                	j	52a4 <_printf_i+0x140>
    535a:	419c                	lw	a5,0(a1)
    535c:	0207e793          	ori	a5,a5,32
    5360:	c19c                	sw	a5,0(a1)
    5362:	07800793          	li	a5,120
    5366:	04f402a3          	sb	a5,69(s0)
    536a:	00001697          	auipc	a3,0x1
    536e:	c4668693          	addi	a3,a3,-954 # 5fb0 <__sf_fake_stdout+0x48>
    5372:	bf75                	j	532e <_printf_i+0x1ca>
    5374:	0405f813          	andi	a6,a1,64
    5378:	c308                	sw	a0,0(a4)
    537a:	fc0803e3          	beqz	a6,5340 <_printf_i+0x1dc>
    537e:	07c2                	slli	a5,a5,0x10
    5380:	83c1                	srli	a5,a5,0x10
    5382:	bf7d                	j	5340 <_printf_i+0x1dc>
    5384:	00001697          	auipc	a3,0x1
    5388:	c1868693          	addi	a3,a3,-1000 # 5f9c <__sf_fake_stdout+0x34>
    538c:	4721                	li	a4,8
    538e:	bf19                	j	52a4 <_printf_i+0x140>
    5390:	87ae                	mv	a5,a1
    5392:	b735                	j	52be <_printf_i+0x15a>
    5394:	4194                	lw	a3,0(a1)
    5396:	431c                	lw	a5,0(a4)
    5398:	49cc                	lw	a1,20(a1)
    539a:	0806f813          	andi	a6,a3,128
    539e:	00478513          	addi	a0,a5,4
    53a2:	00080663          	beqz	a6,53ae <_printf_i+0x24a>
    53a6:	c308                	sw	a0,0(a4)
    53a8:	439c                	lw	a5,0(a5)
    53aa:	c38c                	sw	a1,0(a5)
    53ac:	a039                	j	53ba <_printf_i+0x256>
    53ae:	c308                	sw	a0,0(a4)
    53b0:	0406f693          	andi	a3,a3,64
    53b4:	439c                	lw	a5,0(a5)
    53b6:	daf5                	beqz	a3,53aa <_printf_i+0x246>
    53b8:	a38e                	sh	a1,0(a5)
    53ba:	00042823          	sw	zero,16(s0)
    53be:	8ab2                	mv	s5,a2
    53c0:	bf25                	j	52f8 <_printf_i+0x194>
    53c2:	4814                	lw	a3,16(s0)
    53c4:	8656                	mv	a2,s5
    53c6:	85ca                	mv	a1,s2
    53c8:	8526                	mv	a0,s1
    53ca:	9982                	jalr	s3
    53cc:	f54500e3          	beq	a0,s4,530c <_printf_i+0x1a8>
    53d0:	401c                	lw	a5,0(s0)
    53d2:	8b89                	andi	a5,a5,2
    53d4:	e78d                	bnez	a5,53fe <_printf_i+0x29a>
    53d6:	47b2                	lw	a5,12(sp)
    53d8:	4448                	lw	a0,12(s0)
    53da:	f2f55ae3          	bge	a0,a5,530e <_printf_i+0x1aa>
    53de:	853e                	mv	a0,a5
    53e0:	b73d                	j	530e <_printf_i+0x1aa>
    53e2:	4685                	li	a3,1
    53e4:	8656                	mv	a2,s5
    53e6:	85ca                	mv	a1,s2
    53e8:	8526                	mv	a0,s1
    53ea:	9982                	jalr	s3
    53ec:	f36500e3          	beq	a0,s6,530c <_printf_i+0x1a8>
    53f0:	0a05                	addi	s4,s4,1
    53f2:	445c                	lw	a5,12(s0)
    53f4:	4732                	lw	a4,12(sp)
    53f6:	8f99                	sub	a5,a5,a4
    53f8:	fefa45e3          	blt	s4,a5,53e2 <_printf_i+0x27e>
    53fc:	bfe9                	j	53d6 <_printf_i+0x272>
    53fe:	4a01                	li	s4,0
    5400:	01940a93          	addi	s5,s0,25
    5404:	5b7d                	li	s6,-1
    5406:	b7f5                	j	53f2 <_printf_i+0x28e>

00005408 <_sbrk_r>:
    5408:	1141                	addi	sp,sp,-16
    540a:	c422                	sw	s0,8(sp)
    540c:	842a                	mv	s0,a0
    540e:	852e                	mv	a0,a1
    5410:	1fffc797          	auipc	a5,0x1fffc
    5414:	0c07a023          	sw	zero,192(a5) # 200014d0 <errno>
    5418:	c606                	sw	ra,12(sp)
    541a:	f53fe0ef          	jal	ra,436c <_sbrk>
    541e:	57fd                	li	a5,-1
    5420:	00f51963          	bne	a0,a5,5432 <_sbrk_r+0x2a>
    5424:	1fffc797          	auipc	a5,0x1fffc
    5428:	0ac78793          	addi	a5,a5,172 # 200014d0 <errno>
    542c:	439c                	lw	a5,0(a5)
    542e:	c391                	beqz	a5,5432 <_sbrk_r+0x2a>
    5430:	c01c                	sw	a5,0(s0)
    5432:	40b2                	lw	ra,12(sp)
    5434:	4422                	lw	s0,8(sp)
    5436:	0141                	addi	sp,sp,16
    5438:	8082                	ret

0000543a <__sread>:
    543a:	1141                	addi	sp,sp,-16
    543c:	c422                	sw	s0,8(sp)
    543e:	842e                	mv	s0,a1
    5440:	00e59583          	lh	a1,14(a1)
    5444:	c606                	sw	ra,12(sp)
    5446:	2a79                	jal	55e4 <_read_r>
    5448:	00054963          	bltz	a0,545a <__sread+0x20>
    544c:	487c                	lw	a5,84(s0)
    544e:	97aa                	add	a5,a5,a0
    5450:	c87c                	sw	a5,84(s0)
    5452:	40b2                	lw	ra,12(sp)
    5454:	4422                	lw	s0,8(sp)
    5456:	0141                	addi	sp,sp,16
    5458:	8082                	ret
    545a:	245e                	lhu	a5,12(s0)
    545c:	777d                	lui	a4,0xfffff
    545e:	177d                	addi	a4,a4,-1
    5460:	8ff9                	and	a5,a5,a4
    5462:	a45e                	sh	a5,12(s0)
    5464:	b7fd                	j	5452 <__sread+0x18>

00005466 <__swrite>:
    5466:	25de                	lhu	a5,12(a1)
    5468:	1101                	addi	sp,sp,-32
    546a:	cc22                	sw	s0,24(sp)
    546c:	ca26                	sw	s1,20(sp)
    546e:	c84a                	sw	s2,16(sp)
    5470:	c64e                	sw	s3,12(sp)
    5472:	ce06                	sw	ra,28(sp)
    5474:	1007f793          	andi	a5,a5,256
    5478:	84aa                	mv	s1,a0
    547a:	842e                	mv	s0,a1
    547c:	8932                	mv	s2,a2
    547e:	89b6                	mv	s3,a3
    5480:	c791                	beqz	a5,548c <__swrite+0x26>
    5482:	00e59583          	lh	a1,14(a1)
    5486:	4689                	li	a3,2
    5488:	4601                	li	a2,0
    548a:	220d                	jal	55ac <_lseek_r>
    548c:	245e                	lhu	a5,12(s0)
    548e:	777d                	lui	a4,0xfffff
    5490:	177d                	addi	a4,a4,-1
    5492:	8ff9                	and	a5,a5,a4
    5494:	a45e                	sh	a5,12(s0)
    5496:	00e41583          	lh	a1,14(s0)
    549a:	4462                	lw	s0,24(sp)
    549c:	40f2                	lw	ra,28(sp)
    549e:	86ce                	mv	a3,s3
    54a0:	864a                	mv	a2,s2
    54a2:	49b2                	lw	s3,12(sp)
    54a4:	4942                	lw	s2,16(sp)
    54a6:	8526                	mv	a0,s1
    54a8:	44d2                	lw	s1,20(sp)
    54aa:	6105                	addi	sp,sp,32
    54ac:	a825                	j	54e4 <_write_r>

000054ae <__sseek>:
    54ae:	1141                	addi	sp,sp,-16
    54b0:	c422                	sw	s0,8(sp)
    54b2:	842e                	mv	s0,a1
    54b4:	00e59583          	lh	a1,14(a1)
    54b8:	c606                	sw	ra,12(sp)
    54ba:	28cd                	jal	55ac <_lseek_r>
    54bc:	57fd                	li	a5,-1
    54be:	245a                	lhu	a4,12(s0)
    54c0:	00f51a63          	bne	a0,a5,54d4 <__sseek+0x26>
    54c4:	77fd                	lui	a5,0xfffff
    54c6:	17fd                	addi	a5,a5,-1
    54c8:	8ff9                	and	a5,a5,a4
    54ca:	a45e                	sh	a5,12(s0)
    54cc:	40b2                	lw	ra,12(sp)
    54ce:	4422                	lw	s0,8(sp)
    54d0:	0141                	addi	sp,sp,16
    54d2:	8082                	ret
    54d4:	6785                	lui	a5,0x1
    54d6:	8fd9                	or	a5,a5,a4
    54d8:	a45e                	sh	a5,12(s0)
    54da:	c868                	sw	a0,84(s0)
    54dc:	bfc5                	j	54cc <__sseek+0x1e>

000054de <__sclose>:
    54de:	00e59583          	lh	a1,14(a1)
    54e2:	a825                	j	551a <_close_r>

000054e4 <_write_r>:
    54e4:	1141                	addi	sp,sp,-16
    54e6:	c422                	sw	s0,8(sp)
    54e8:	842a                	mv	s0,a0
    54ea:	852e                	mv	a0,a1
    54ec:	85b2                	mv	a1,a2
    54ee:	8636                	mv	a2,a3
    54f0:	1fffc797          	auipc	a5,0x1fffc
    54f4:	fe07a023          	sw	zero,-32(a5) # 200014d0 <errno>
    54f8:	c606                	sw	ra,12(sp)
    54fa:	e35fe0ef          	jal	ra,432e <_write>
    54fe:	57fd                	li	a5,-1
    5500:	00f51963          	bne	a0,a5,5512 <_write_r+0x2e>
    5504:	1fffc797          	auipc	a5,0x1fffc
    5508:	fcc78793          	addi	a5,a5,-52 # 200014d0 <errno>
    550c:	439c                	lw	a5,0(a5)
    550e:	c391                	beqz	a5,5512 <_write_r+0x2e>
    5510:	c01c                	sw	a5,0(s0)
    5512:	40b2                	lw	ra,12(sp)
    5514:	4422                	lw	s0,8(sp)
    5516:	0141                	addi	sp,sp,16
    5518:	8082                	ret

0000551a <_close_r>:
    551a:	1141                	addi	sp,sp,-16
    551c:	c422                	sw	s0,8(sp)
    551e:	842a                	mv	s0,a0
    5520:	852e                	mv	a0,a1
    5522:	1fffc797          	auipc	a5,0x1fffc
    5526:	fa07a723          	sw	zero,-82(a5) # 200014d0 <errno>
    552a:	c606                	sw	ra,12(sp)
    552c:	20f5                	jal	5618 <_close>
    552e:	57fd                	li	a5,-1
    5530:	00f51963          	bne	a0,a5,5542 <_close_r+0x28>
    5534:	1fffc797          	auipc	a5,0x1fffc
    5538:	f9c78793          	addi	a5,a5,-100 # 200014d0 <errno>
    553c:	439c                	lw	a5,0(a5)
    553e:	c391                	beqz	a5,5542 <_close_r+0x28>
    5540:	c01c                	sw	a5,0(s0)
    5542:	40b2                	lw	ra,12(sp)
    5544:	4422                	lw	s0,8(sp)
    5546:	0141                	addi	sp,sp,16
    5548:	8082                	ret

0000554a <_fstat_r>:
    554a:	1141                	addi	sp,sp,-16
    554c:	c422                	sw	s0,8(sp)
    554e:	842a                	mv	s0,a0
    5550:	852e                	mv	a0,a1
    5552:	85b2                	mv	a1,a2
    5554:	1fffc797          	auipc	a5,0x1fffc
    5558:	f607ae23          	sw	zero,-132(a5) # 200014d0 <errno>
    555c:	c606                	sw	ra,12(sp)
    555e:	20e9                	jal	5628 <_fstat>
    5560:	57fd                	li	a5,-1
    5562:	00f51963          	bne	a0,a5,5574 <_fstat_r+0x2a>
    5566:	1fffc797          	auipc	a5,0x1fffc
    556a:	f6a78793          	addi	a5,a5,-150 # 200014d0 <errno>
    556e:	439c                	lw	a5,0(a5)
    5570:	c391                	beqz	a5,5574 <_fstat_r+0x2a>
    5572:	c01c                	sw	a5,0(s0)
    5574:	40b2                	lw	ra,12(sp)
    5576:	4422                	lw	s0,8(sp)
    5578:	0141                	addi	sp,sp,16
    557a:	8082                	ret

0000557c <_isatty_r>:
    557c:	1141                	addi	sp,sp,-16
    557e:	c422                	sw	s0,8(sp)
    5580:	842a                	mv	s0,a0
    5582:	852e                	mv	a0,a1
    5584:	1fffc797          	auipc	a5,0x1fffc
    5588:	f407a623          	sw	zero,-180(a5) # 200014d0 <errno>
    558c:	c606                	sw	ra,12(sp)
    558e:	206d                	jal	5638 <_isatty>
    5590:	57fd                	li	a5,-1
    5592:	00f51963          	bne	a0,a5,55a4 <_isatty_r+0x28>
    5596:	1fffc797          	auipc	a5,0x1fffc
    559a:	f3a78793          	addi	a5,a5,-198 # 200014d0 <errno>
    559e:	439c                	lw	a5,0(a5)
    55a0:	c391                	beqz	a5,55a4 <_isatty_r+0x28>
    55a2:	c01c                	sw	a5,0(s0)
    55a4:	40b2                	lw	ra,12(sp)
    55a6:	4422                	lw	s0,8(sp)
    55a8:	0141                	addi	sp,sp,16
    55aa:	8082                	ret

000055ac <_lseek_r>:
    55ac:	1141                	addi	sp,sp,-16
    55ae:	c422                	sw	s0,8(sp)
    55b0:	842a                	mv	s0,a0
    55b2:	852e                	mv	a0,a1
    55b4:	85b2                	mv	a1,a2
    55b6:	8636                	mv	a2,a3
    55b8:	1fffc797          	auipc	a5,0x1fffc
    55bc:	f007ac23          	sw	zero,-232(a5) # 200014d0 <errno>
    55c0:	c606                	sw	ra,12(sp)
    55c2:	2059                	jal	5648 <_lseek>
    55c4:	57fd                	li	a5,-1
    55c6:	00f51963          	bne	a0,a5,55d8 <_lseek_r+0x2c>
    55ca:	1fffc797          	auipc	a5,0x1fffc
    55ce:	f0678793          	addi	a5,a5,-250 # 200014d0 <errno>
    55d2:	439c                	lw	a5,0(a5)
    55d4:	c391                	beqz	a5,55d8 <_lseek_r+0x2c>
    55d6:	c01c                	sw	a5,0(s0)
    55d8:	40b2                	lw	ra,12(sp)
    55da:	4422                	lw	s0,8(sp)
    55dc:	0141                	addi	sp,sp,16
    55de:	8082                	ret

000055e0 <__malloc_lock>:
    55e0:	8082                	ret

000055e2 <__malloc_unlock>:
    55e2:	8082                	ret

000055e4 <_read_r>:
    55e4:	1141                	addi	sp,sp,-16
    55e6:	c422                	sw	s0,8(sp)
    55e8:	842a                	mv	s0,a0
    55ea:	852e                	mv	a0,a1
    55ec:	85b2                	mv	a1,a2
    55ee:	8636                	mv	a2,a3
    55f0:	1fffc797          	auipc	a5,0x1fffc
    55f4:	ee07a023          	sw	zero,-288(a5) # 200014d0 <errno>
    55f8:	c606                	sw	ra,12(sp)
    55fa:	28b9                	jal	5658 <_read>
    55fc:	57fd                	li	a5,-1
    55fe:	00f51963          	bne	a0,a5,5610 <_read_r+0x2c>
    5602:	1fffc797          	auipc	a5,0x1fffc
    5606:	ece78793          	addi	a5,a5,-306 # 200014d0 <errno>
    560a:	439c                	lw	a5,0(a5)
    560c:	c391                	beqz	a5,5610 <_read_r+0x2c>
    560e:	c01c                	sw	a5,0(s0)
    5610:	40b2                	lw	ra,12(sp)
    5612:	4422                	lw	s0,8(sp)
    5614:	0141                	addi	sp,sp,16
    5616:	8082                	ret

00005618 <_close>:
    5618:	05800793          	li	a5,88
    561c:	1fffc717          	auipc	a4,0x1fffc
    5620:	eaf72a23          	sw	a5,-332(a4) # 200014d0 <errno>
    5624:	557d                	li	a0,-1
    5626:	8082                	ret

00005628 <_fstat>:
    5628:	05800793          	li	a5,88
    562c:	1fffc717          	auipc	a4,0x1fffc
    5630:	eaf72223          	sw	a5,-348(a4) # 200014d0 <errno>
    5634:	557d                	li	a0,-1
    5636:	8082                	ret

00005638 <_isatty>:
    5638:	05800793          	li	a5,88
    563c:	1fffc717          	auipc	a4,0x1fffc
    5640:	e8f72a23          	sw	a5,-364(a4) # 200014d0 <errno>
    5644:	4501                	li	a0,0
    5646:	8082                	ret

00005648 <_lseek>:
    5648:	05800793          	li	a5,88
    564c:	1fffc717          	auipc	a4,0x1fffc
    5650:	e8f72223          	sw	a5,-380(a4) # 200014d0 <errno>
    5654:	557d                	li	a0,-1
    5656:	8082                	ret

00005658 <_read>:
    5658:	05800793          	li	a5,88
    565c:	1fffc717          	auipc	a4,0x1fffc
    5660:	e6f72a23          	sw	a5,-396(a4) # 200014d0 <errno>
    5664:	557d                	li	a0,-1
    5666:	8082                	ret
    5668:	5548                	lw	a0,44(a0)
    566a:	5f42                	lw	t5,48(sp)
    566c:	4550                	lw	a2,12(a0)
    566e:	5f31                	li	t5,-20
    5670:	5245                	li	tp,-15
    5672:	3152                	lhu	a2,36(a0)
    5674:	253a                	lhu	a4,10(a0)
    5676:	0d78                	addi	a4,sp,668
    5678:	000a                	c.slli	zero,0x2
    567a:	0000                	unimp
    567c:	5548                	lw	a0,44(a0)
    567e:	5f42                	lw	t5,48(sp)
    5680:	4550                	lw	a2,12(a0)
    5682:	5f31                	li	t5,-20
    5684:	5245                	li	tp,-15
    5686:	3252                	lhu	a2,36(a2)
    5688:	253a                	lhu	a4,10(a0)
    568a:	0d78                	addi	a4,sp,668
    568c:	000a                	c.slli	zero,0x2
    568e:	0000                	unimp
    5690:	5548                	lw	a0,44(a0)
    5692:	5f42                	lw	t5,48(sp)
    5694:	4550                	lw	a2,12(a0)
    5696:	5f31                	li	t5,-20
    5698:	5245                	li	tp,-15
    569a:	3352                	lhu	a2,36(a4)
    569c:	253a                	lhu	a4,10(a0)
    569e:	0d78                	addi	a4,sp,668
    56a0:	000a                	c.slli	zero,0x2
    56a2:	0000                	unimp
    56a4:	7548                	flw	fa0,44(a0)
    56a6:	2062                	lhu	s0,6(s0)
    56a8:	6f50                	flw	fa2,28(a4)
    56aa:	7472                	flw	fs0,60(sp)
    56ac:	7825                	lui	a6,0xfffe9
    56ae:	4f20                	lw	s0,88(a4)
    56b0:	7475                	lui	s0,0xffffd
    56b2:	0a0d                	addi	s4,s4,3
    56b4:	0000                	unimp
    56b6:	0000                	unimp
    56b8:	5548                	lw	a0,44(a0)
    56ba:	5f42                	lw	t5,48(sp)
    56bc:	4550                	lw	a2,12(a0)
    56be:	5f32                	lw	t5,44(sp)
    56c0:	5245                	li	tp,-15
    56c2:	3152                	lhu	a2,36(a0)
    56c4:	253a                	lhu	a4,10(a0)
    56c6:	0d78                	addi	a4,sp,668
    56c8:	000a                	c.slli	zero,0x2
    56ca:	0000                	unimp
    56cc:	5548                	lw	a0,44(a0)
    56ce:	5f42                	lw	t5,48(sp)
    56d0:	4550                	lw	a2,12(a0)
    56d2:	5f32                	lw	t5,44(sp)
    56d4:	5245                	li	tp,-15
    56d6:	3252                	lhu	a2,36(a2)
    56d8:	253a                	lhu	a4,10(a0)
    56da:	0d78                	addi	a4,sp,668
    56dc:	000a                	c.slli	zero,0x2
    56de:	0000                	unimp
    56e0:	5548                	lw	a0,44(a0)
    56e2:	5f42                	lw	t5,48(sp)
    56e4:	4550                	lw	a2,12(a0)
    56e6:	5f32                	lw	t5,44(sp)
    56e8:	5245                	li	tp,-15
    56ea:	3352                	lhu	a2,36(a4)
    56ec:	253a                	lhu	a4,10(a0)
    56ee:	0d78                	addi	a4,sp,668
    56f0:	000a                	c.slli	zero,0x2
    56f2:	0000                	unimp
    56f4:	7548                	flw	fa0,44(a0)
    56f6:	2062                	lhu	s0,6(s0)
    56f8:	6f50                	flw	fa2,28(a4)
    56fa:	7472                	flw	fs0,60(sp)
    56fc:	7825                	lui	a6,0xfffe9
    56fe:	4920                	lw	s0,80(a0)
    5700:	0d6e                	slli	s10,s10,0x1b
    5702:	000a                	c.slli	zero,0x2
    5704:	20746547          	fmsub.s	fa0,fs0,ft7,ft4,unknown
    5708:	6e49                	lui	t3,0x12
    570a:	6574                	flw	fa3,76(a0)
    570c:	6672                	flw	fa2,28(sp)
    570e:	6361                	lui	t1,0x18
    5710:	2565                	jal	5db8 <_read+0x760>
    5712:	2078                	lbu	a4,6(s0)
    5714:	6552                	flw	fa0,20(sp)
    5716:	4470                	lw	a2,76(s0)
    5718:	7365                	lui	t1,0xffff9
    571a:	00203a63          	0x203a63
    571e:	0000                	unimp
    5720:	4850                	lw	a2,20(s0)
    5722:	2059                	jal	57a8 <_read+0x150>
    5724:	6f6d                	lui	t5,0x1b
    5726:	7375                	lui	t1,0xffffd
    5728:	2065                	jal	57d0 <_read+0x178>
    572a:	616d                	addi	sp,sp,240
    572c:	2070                	lbu	a2,6(s0)
    572e:	6e69                	lui	t3,0x1a
    5730:	6674                	flw	fa3,76(a2)
    5732:	253a                	lhu	a4,10(a0)
    5734:	2075                	jal	57e0 <_read+0x188>
    5736:	6176                	flw	ft2,92(sp)
    5738:	696c                	flw	fa1,84(a0)
    573a:	3a64                	lbu	s1,23(a2)
    573c:	7525                	lui	a0,0xfffe9
    573e:	6920                	flw	fs0,80(a0)
    5740:	3a64                	lbu	s1,23(a2)
    5742:	3025                	jal	4f6a <_vfiprintf_r+0x1a0>
    5744:	7832                	flw	fa6,44(sp)
    5746:	6220                	flw	fs0,64(a2)
    5748:	6e74                	flw	fa3,92(a2)
    574a:	253a                	lhu	a4,10(a0)
    574c:	4075                	c.li	zero,29
    574e:	7525                	lui	a0,0xfffe9
    5750:	7820                	flw	fs0,112(s0)
    5752:	253a                	lhu	a4,10(a0)
    5754:	4075                	c.li	zero,29
    5756:	7525                	lui	a0,0xfffe9
    5758:	7920                	flw	fs0,112(a0)
    575a:	253a                	lhu	a4,10(a0)
    575c:	4075                	c.li	zero,29
    575e:	7525                	lui	a0,0xfffe9
    5760:	7720                	flw	fs0,104(a4)
    5762:	3a68                	lbu	a0,23(a2)
    5764:	7525                	lui	a0,0xfffe9
    5766:	2540                	lbu	s0,12(a0)
    5768:	0d75                	addi	s10,s10,29
    576a:	000a                	c.slli	zero,0x2
    576c:	6e45                	lui	t3,0x11
    576e:	6d75                	lui	s10,0x1d
    5770:	4820                	lw	s0,80(s0)
    5772:	6469                	lui	s0,0x1a
    5774:	0d3a                	slli	s10,s10,0xe
    5776:	0000                	unimp
    5778:	6e45                	lui	t3,0x11
    577a:	6d75                	lui	s10,0x1d
    577c:	4820                	lw	s0,80(s0)
    577e:	6275                	lui	tp,0x1d
    5780:	0d3a                	slli	s10,s10,0xe
    5782:	0000                	unimp
    5784:	6e41                	lui	t3,0x10
    5786:	6c61                	lui	s8,0x18
    5788:	7a79                	lui	s4,0xffffe
    578a:	2065                	jal	5832 <_read+0x1da>
    578c:	44676643          	0x44676643
    5790:	7365                	lui	t1,0xffff9
    5792:	00203a63          	0x203a63
    5796:	0000                	unimp
    5798:	20746547          	fmsub.s	fa0,fs0,ft7,ft4,unknown
    579c:	69727453          	0x69727453
    57a0:	676e                	flw	fa4,216(sp)
    57a2:	6544                	flw	fs1,12(a0)
    57a4:	3a346373          	csrrsi	t1,pmpcfg3,8
    57a8:	0020                	addi	s0,sp,8
    57aa:	0000                	unimp
    57ac:	20746547          	fmsub.s	fa0,fs0,ft7,ft4,unknown
    57b0:	69727453          	0x69727453
    57b4:	676e                	flw	fa4,216(sp)
    57b6:	6544                	flw	fs1,12(a0)
    57b8:	3a316373          	csrrsi	t1,pmpcfg3,2
    57bc:	0020                	addi	s0,sp,8
    57be:	0000                	unimp
    57c0:	20746547          	fmsub.s	fa0,fs0,ft7,ft4,unknown
    57c4:	69727453          	0x69727453
    57c8:	676e                	flw	fa4,216(sp)
    57ca:	6544                	flw	fs1,12(a0)
    57cc:	3a326373          	csrrsi	t1,pmpcfg3,4
    57d0:	0020                	addi	s0,sp,8
    57d2:	0000                	unimp
    57d4:	20746547          	fmsub.s	fa0,fs0,ft7,ft4,unknown
    57d8:	69727453          	0x69727453
    57dc:	676e                	flw	fa4,216(sp)
    57de:	6544                	flw	fs1,12(a0)
    57e0:	3a336373          	csrrsi	t1,pmpcfg3,6
    57e4:	0020                	addi	s0,sp,8
    57e6:	0000                	unimp
    57e8:	20746547          	fmsub.s	fa0,fs0,ft7,ft4,unknown
    57ec:	7548                	flw	fa0,44(a0)
    57ee:	2062                	lhu	s0,6(s0)
    57f0:	6544                	flw	fs1,12(a0)
    57f2:	203a6373          	csrrsi	t1,hideleg,20
    57f6:	0000                	unimp
    57f8:	6f52                	flw	ft10,20(sp)
    57fa:	7548746f          	jal	s0,8cf4e <_data_lma+0x86f8a>
    57fe:	4462                	lw	s0,24(sp)
    5800:	7665                	lui	a2,0xffff9
    5802:	3025205b          	0x3025205b
    5806:	7832                	flw	fa6,44(sp)
    5808:	5d20                	lw	s0,120(a0)
    580a:	622e                	flw	ft4,200(sp)
    580c:	6f50                	flw	fa2,28(a4)
    580e:	7472                	flw	fs0,60(sp)
    5810:	754e                	flw	fa0,240(sp)
    5812:	3a6d                	jal	51cc <_printf_i+0x68>
    5814:	2520                	lbu	s0,10(a0)
    5816:	3230                	lbu	a2,3(a2)
    5818:	0d78                	addi	a4,sp,668
    581a:	000a                	c.slli	zero,0x2
    581c:	5328                	lw	a0,96(a4)
    581e:	2931                	jal	5c3a <_read+0x5e2>
    5820:	20746547          	fmsub.s	fa0,fs0,ft7,ft4,unknown
    5824:	6544                	flw	fs1,12(a0)
    5826:	4476                	lw	s0,92(sp)
    5828:	7365                	lui	t1,0xffff9
    582a:	0d203a63          	0xd203a63
    582e:	0000                	unimp
    5830:	20746553          	0x20746553
    5834:	6544                	flw	fs1,12(a0)
    5836:	4176                	lw	sp,92(sp)
    5838:	6464                	flw	fs1,76(s0)
    583a:	3a72                	lhu	a2,54(a2)
    583c:	0d20                	addi	s0,sp,664
    583e:	0000                	unimp
    5840:	20746547          	fmsub.s	fa0,fs0,ft7,ft4,unknown
    5844:	6544                	flw	fs1,12(a0)
    5846:	4376                	lw	t1,92(sp)
    5848:	6766                	flw	fa4,88(sp)
    584a:	6544                	flw	fs1,12(a0)
    584c:	203a6373          	csrrsi	t1,hideleg,20
    5850:	000d                	c.nop	3
    5852:	0000                	unimp
    5854:	20746553          	0x20746553
    5858:	56676643          	fmadd.q	fa2,fa4,ft6,fa0,unknown
    585c:	6c61                	lui	s8,0x18
    585e:	6575                	lui	a0,0x1d
    5860:	203a                	lhu	a4,2(s0)
    5862:	000d                	c.nop	3
    5864:	6e45                	lui	t3,0x11
    5866:	6d75                	lui	s10,0x1d
    5868:	0d3a                	slli	s10,s10,0xe
    586a:	0000                	unimp
    586c:	6e65                	lui	t3,0x19
    586e:	6261                	lui	tp,0x18
    5870:	656c                	flw	fa1,76(a0)
    5872:	665f 6961 006c      	0x6c6961665f
    5878:	6e65                	lui	t3,0x19
    587a:	6261                	lui	tp,0x18
    587c:	656c                	flw	fa1,76(a0)
    587e:	0064                	addi	s1,sp,12
    5880:	20746547          	fmsub.s	fa0,fs0,ft7,ft4,unknown
    5884:	6544                	flw	fs1,12(a0)
    5886:	4476                	lw	s0,92(sp)
    5888:	7365                	lui	t1,0xffff9
    588a:	00203a63          	0x203a63
    588e:	0000                	unimp
    5890:	3025                	jal	50b8 <_printf_common+0x60>
    5892:	7832                	flw	fa6,44(sp)
    5894:	0020                	addi	s0,sp,8
    5896:	0000                	unimp
    5898:	20746553          	0x20746553
    589c:	6544                	flw	fs1,12(a0)
    589e:	4176                	lw	sp,92(sp)
    58a0:	6464                	flw	fs1,76(s0)
    58a2:	3a72                	lhu	a2,54(a2)
    58a4:	0020                	addi	s0,sp,8
    58a6:	0000                	unimp
    58a8:	7245                	lui	tp,0xffff1
    58aa:	2872                	lhu	a2,22(s0)
    58ac:	3025                	jal	50d4 <_printf_common+0x7c>
    58ae:	7832                	flw	fa6,44(sp)
    58b0:	0d29                	addi	s10,s10,10
    58b2:	000a                	c.slli	zero,0x2
    58b4:	64746567          	0x64746567
    58b8:	7665                	lui	a2,0xffff9
    58ba:	655f 7272 0000      	0x7272655f
    58c0:	000d4b4f          	fnmadd.s	fs6,fs10,ft0,ft0,rmm
    58c4:	20746547          	fmsub.s	fa0,fs0,ft7,ft4,unknown
    58c8:	44676643          	0x44676643
    58cc:	7365                	lui	t1,0xffff9
    58ce:	00203a63          	0x203a63
    58d2:	0000                	unimp
    58d4:	6544                	flw	fs1,12(a0)
    58d6:	5476                	lw	s0,124(sp)
    58d8:	7079                	c.lui	zero,0xffffe
    58da:	3a65                	jal	5292 <_printf_i+0x12e>
    58dc:	2520                	lbu	s0,10(a0)
    58de:	3230                	lbu	a2,3(a2)
    58e0:	0d78                	addi	a4,sp,668
    58e2:	000a                	c.slli	zero,0x2
    58e4:	20746553          	0x20746553
    58e8:	3a676643          	fmadd.d	fa2,fa4,ft6,ft7,unknown
    58ec:	0020                	addi	s0,sp,8
    58ee:	0000                	unimp
    58f0:	5355                	li	t1,-11
    58f2:	2042                	lhu	s0,4(s0)
    58f4:	6f50                	flw	fa2,28(a4)
    58f6:	7472                	flw	fs0,60(sp)
    58f8:	7825                	lui	a6,0xfffe9
    58fa:	4420                	lw	s0,72(s0)
    58fc:	7665                	lui	a2,0xffff9
    58fe:	4920                	lw	s0,80(a0)
    5900:	2e6e                	lhu	a1,30(a2)
    5902:	0a0d                	addi	s4,s4,3
    5904:	0000                	unimp
    5906:	0000                	unimp
    5908:	6f52                	flw	ft10,20(sp)
    590a:	4420746f          	jal	s0,cd4c <_data_lma+0x6d88>
    590e:	7665                	lui	a2,0xffff9
    5910:	6369                	lui	t1,0x1a
    5912:	2065                	jal	59ba <_read+0x362>
    5914:	7349                	lui	t1,0xffff2
    5916:	4820                	lw	s0,80(s0)
    5918:	4449                	li	s0,18
    591a:	202e                	lhu	a1,2(s0)
    591c:	0000                	unimp
    591e:	0000                	unimp
    5920:	7546                	flw	fa0,112(sp)
    5922:	7472                	flw	fs0,60(sp)
    5924:	6568                	flw	fa0,76(a0)
    5926:	2072                	lhu	a2,6(s0)
    5928:	6e45                	lui	t3,0x11
    592a:	6d75                	lui	s10,0x1d
    592c:	5220                	lw	s0,96(a2)
    592e:	7365                	lui	t1,0xffff9
    5930:	6c75                	lui	s8,0x1d
    5932:	3a74                	lbu	a3,23(a2)
    5934:	0020                	addi	s0,sp,8
    5936:	0000                	unimp
    5938:	6f52                	flw	ft10,20(sp)
    593a:	4420746f          	jal	s0,cd7c <_data_lma+0x6db8>
    593e:	7665                	lui	a2,0xffff9
    5940:	6369                	lui	t1,0x1a
    5942:	2065                	jal	59ea <_read+0x392>
    5944:	7349                	lui	t1,0xffff2
    5946:	4820                	lw	s0,80(s0)
    5948:	4255                	li	tp,21
    594a:	202e                	lhu	a1,2(s0)
    594c:	0000                	unimp
    594e:	0000                	unimp
    5950:	6f52                	flw	ft10,20(sp)
    5952:	4420746f          	jal	s0,cd94 <_data_lma+0x6dd0>
    5956:	7665                	lui	a2,0xffff9
    5958:	6369                	lui	t1,0x1a
    595a:	2065                	jal	5a02 <_read+0x3aa>
    595c:	7349                	lui	t1,0xffff2
    595e:	0020                	addi	s0,sp,8
    5960:	726f7453          	0x726f7453
    5964:	6761                	lui	a4,0x18
    5966:	2e65                	jal	5d1e <_read+0x6c6>
    5968:	0020                	addi	s0,sp,8
    596a:	0000                	unimp
    596c:	7250                	flw	fa2,36(a2)
    596e:	6e69                	lui	t3,0x1a
    5970:	6574                	flw	fa3,76(a0)
    5972:	2e72                	lhu	a2,30(a2)
    5974:	0020                	addi	s0,sp,8
    5976:	0000                	unimp
    5978:	6e55                	lui	t3,0x15
    597a:	776f6e6b          	0x776f6e6b
    597e:	2e6e                	lhu	a1,30(a2)
    5980:	0020                	addi	s0,sp,8
    5982:	0000                	unimp
    5984:	6e45                	lui	t3,0x11
    5986:	2064                	lbu	s1,6(s0)
    5988:	6e45                	lui	t3,0x11
    598a:	6d75                	lui	s10,0x1d
    598c:	0d2e                	slli	s10,s10,0xb
    598e:	0000                	unimp
    5990:	6e45                	lui	t3,0x11
    5992:	6d75                	lui	s10,0x1d
    5994:	4620                	lw	s0,72(a2)
    5996:	6961                	lui	s2,0x18
    5998:	206c                	lbu	a1,6(s0)
    599a:	68746977          	0x68746977
    599e:	4520                	lw	s0,72(a0)
    59a0:	7272                	flw	ft4,60(sp)
    59a2:	4320726f          	jal	tp,cdd4 <_data_lma+0x6e10>
    59a6:	3a65646f          	jal	s0,5bd4c <_data_lma+0x55d88>
    59aa:	7825                	lui	a6,0xfffe9
    59ac:	0a0d                	addi	s4,s4,3
    59ae:	0000                	unimp
    59b0:	5355                	li	t1,-11
    59b2:	2042                	lhu	s0,4(s0)
    59b4:	6f50                	flw	fa2,28(a4)
    59b6:	7472                	flw	fs0,60(sp)
    59b8:	7825                	lui	a6,0xfffe9
    59ba:	4420                	lw	s0,72(s0)
    59bc:	7665                	lui	a2,0xffff9
    59be:	4f20                	lw	s0,88(a4)
    59c0:	7475                	lui	s0,0xffffd
    59c2:	0d2e                	slli	s10,s10,0xb
    59c4:	000a                	c.slli	zero,0x2
    59c6:	0000                	unimp
    59c8:	6241                	lui	tp,0x10
    59ca:	6f6e                	flw	ft10,216(sp)
    59cc:	6d72                	flw	fs10,28(sp)
    59ce:	6c61                	lui	s8,0x18
    59d0:	000d                	c.nop	3
    59d2:	0000                	unimp
    59d4:	7548                	flw	fa0,44(a0)
    59d6:	2062                	lhu	s0,6(s0)
    59d8:	6e49                	lui	t3,0x12
    59da:	2074                	lbu	a3,6(s0)
    59dc:	6144                	flw	fs1,4(a0)
    59de:	6174                	flw	fa3,68(a0)
    59e0:	253a                	lhu	a4,10(a0)
    59e2:	3230                	lbu	a2,3(a2)
    59e4:	0d78                	addi	a4,sp,668
    59e6:	000a                	c.slli	zero,0x2
    59e8:	6544                	flw	fs1,12(a0)
    59ea:	2076                	lhu	a3,6(s0)
    59ec:	65657053          	0x65657053
    59f0:	3a64                	lbu	s1,23(a2)
    59f2:	7825                	lui	a6,0xfffe9
    59f4:	0a0d                	addi	s4,s4,3
    59f6:	0000                	unimp
    59f8:	6e45                	lui	t3,0x11
    59fa:	6d75                	lui	s10,0x1d
    59fc:	485f 6275 6544      	0x65446275485f
    5a02:	6976                	flw	fs2,92(sp)
    5a04:	000d6563          	bltu	s10,zero,5a0e <_read+0x3b6>
    5a08:	5548                	lw	a0,44(a0)
    5a0a:	2042                	lhu	s0,4(s0)
    5a0c:	6f70                	flw	fa2,92(a4)
    5a0e:	7472                	flw	fs0,60(sp)
    5a10:	7825                	lui	a6,0xfffe9
    5a12:	6420                	flw	fs0,72(s0)
    5a14:	7665                	lui	a2,0xffff9
    5a16:	6369                	lui	t1,0x1a
    5a18:	2065                	jal	5ac0 <_read+0x468>
    5a1a:	7369                	lui	t1,0xffffa
    5a1c:	4820                	lw	s0,80(s0)
    5a1e:	4449                	li	s0,18
    5a20:	2021                	jal	5a28 <_read+0x3d0>
    5a22:	7546                	flw	fa0,112(sp)
    5a24:	7472                	flw	fs0,60(sp)
    5a26:	6568                	flw	fa0,76(a0)
    5a28:	2072                	lhu	a2,6(s0)
    5a2a:	6e45                	lui	t3,0x11
    5a2c:	6d75                	lui	s10,0x1d
    5a2e:	0d3a                	slli	s10,s10,0xe
    5a30:	000a                	c.slli	zero,0x2
    5a32:	0000                	unimp
    5a34:	0d214b4f          	0xd214b4f
    5a38:	0000                	unimp
    5a3a:	0000                	unimp
    5a3c:	5548                	lw	a0,44(a0)
    5a3e:	2042                	lhu	s0,4(s0)
    5a40:	6f70                	flw	fa2,92(a4)
    5a42:	7472                	flw	fs0,60(sp)
    5a44:	7825                	lui	a6,0xfffe9
    5a46:	6420                	flw	fs0,72(s0)
    5a48:	7665                	lui	a2,0xffff9
    5a4a:	6369                	lui	t1,0x1a
    5a4c:	2065                	jal	5af4 <_read+0x49c>
    5a4e:	7369                	lui	t1,0xffffa
    5a50:	0020                	addi	s0,sp,8
    5a52:	0000                	unimp
    5a54:	726f7473          	csrrci	s0,0x726,30
    5a58:	6761                	lui	a4,0x18
    5a5a:	2165                	jal	5f02 <hs_prod_desc+0xe>
    5a5c:	000d                	c.nop	3
    5a5e:	0000                	unimp
    5a60:	7270                	flw	fa2,100(a2)
    5a62:	6e69                	lui	t3,0x1a
    5a64:	6574                	flw	fa3,76(a0)
    5a66:	2172                	lhu	a2,6(a0)
    5a68:	000d                	c.nop	3
    5a6a:	0000                	unimp
    5a6c:	6e75                	lui	t3,0x1d
    5a6e:	776f6e6b          	0x776f6e6b
    5a72:	216e                	lhu	a1,6(a0)
    5a74:	000d                	c.nop	3
    5a76:	0000                	unimp
    5a78:	5548                	lw	a0,44(a0)
    5a7a:	2042                	lhu	s0,4(s0)
    5a7c:	6f50                	flw	fa2,28(a4)
    5a7e:	7472                	flw	fs0,60(sp)
    5a80:	7825                	lui	a6,0xfffe9
    5a82:	4520                	lw	s0,72(a0)
    5a84:	756e                	flw	fa0,248(sp)
    5a86:	206d                	jal	5b30 <_read+0x4d8>
    5a88:	7245                	lui	tp,0xffff1
    5a8a:	2172                	lhu	a2,6(a0)
    5a8c:	0a0d                	addi	s4,s4,3
    5a8e:	0000                	unimp
    5a90:	4850                	lw	a2,20(s0)
    5a92:	2059                	jal	5b18 <_read+0x4c0>
    5a94:	6f6d                	lui	t5,0x1b
    5a96:	7375                	lui	t1,0xffffd
    5a98:	2065                	jal	5b40 <_read+0x4e8>
    5a9a:	6172                	flw	ft2,28(sp)
    5a9c:	656c2077          	0x656c2077
    5aa0:	3a6e                	lhu	a1,54(a2)
    5aa2:	7525                	lui	a0,0xfffe9
    5aa4:	6d20                	flw	fs0,88(a0)
    5aa6:	7061                	c.lui	zero,0xffff8
    5aa8:	253a                	lhu	a4,10(a0)
    5aaa:	2075                	jal	5b56 <_read+0x4fe>
    5aac:	6469                	lui	s0,0x1a
    5aae:	253a                	lhu	a4,10(a0)
    5ab0:	3230                	lbu	a2,3(a2)
    5ab2:	2078                	lbu	a4,6(s0)
    5ab4:	3025                	jal	52dc <_printf_i+0x178>
    5ab6:	7832                	flw	fa6,44(sp)
    5ab8:	2520                	lbu	s0,10(a0)
    5aba:	3230                	lbu	a2,3(a2)
    5abc:	2078                	lbu	a4,6(s0)
    5abe:	3025                	jal	52e6 <_printf_i+0x182>
    5ac0:	7832                	flw	fa6,44(sp)
    5ac2:	2520                	lbu	s0,10(a0)
    5ac4:	3230                	lbu	a2,3(a2)
    5ac6:	2078                	lbu	a4,6(s0)
    5ac8:	3025                	jal	52f0 <_printf_i+0x18c>
    5aca:	7832                	flw	fa6,44(sp)
    5acc:	2520                	lbu	s0,10(a0)
    5ace:	3230                	lbu	a2,3(a2)
    5ad0:	2078                	lbu	a4,6(s0)
    5ad2:	3025                	jal	52fa <_printf_i+0x196>
    5ad4:	7832                	flw	fa6,44(sp)
    5ad6:	2d20                	lbu	s0,26(a0)
    5ad8:	203e                	lhu	a5,2(s0)
    5ada:	7864                	flw	fs1,116(s0)
    5adc:	253a                	lhu	a4,10(a0)
    5ade:	2064                	lbu	s1,6(s0)
    5ae0:	7964                	flw	fs1,116(a0)
    5ae2:	253a                	lhu	a4,10(a0)
    5ae4:	2064                	lbu	s1,6(s0)
    5ae6:	7462                	flw	fs0,56(sp)
    5ae8:	3a6e                	lhu	a1,54(a2)
    5aea:	3025                	jal	5312 <_printf_i+0x1ae>
    5aec:	7832                	flw	fa6,44(sp)
    5aee:	7720                	flw	fs0,104(a4)
    5af0:	3a68                	lbu	a0,23(a2)
    5af2:	6425                	lui	s0,0x9
    5af4:	0a0d                	addi	s4,s4,3
    5af6:	0000                	unimp
    5af8:	5546                	lw	a0,112(sp)
    5afa:	4c4c                	lw	a1,28(s0)
    5afc:	0000                	unimp
    5afe:	0000                	unimp
    5b00:	4f4c                	lw	a1,28(a4)
    5b02:	4e550057          	0x4e550057
    5b06:	5346004b          	fnmsub.d	ft0,fa2,fs4,fa0,rne
    5b0a:	2520                	lbu	s0,10(a0)
    5b0c:	70732073          	csrs	0x707,t1
    5b10:	253a                	lhu	a4,10(a0)
    5b12:	75252873          	csrrs	a6,0x752,a0
    5b16:	2029                	jal	5b20 <_read+0x4c8>
    5b18:	7064                	flw	fs1,100(s0)
    5b1a:	253a                	lhu	a4,10(a0)
    5b1c:	2075                	jal	5bc8 <_read+0x570>
    5b1e:	6d64                	flw	fs1,92(a0)
    5b20:	253a                	lhu	a4,10(a0)
    5b22:	2075                	jal	5bce <_read+0x576>
    5b24:	7461                	lui	s0,0xffff8
    5b26:	6174                	flw	fa3,68(a0)
    5b28:	253a6863          	bltu	s4,s3,5d78 <_read+0x720>
    5b2c:	2075                	jal	5bd8 <_read+0x580>
    5b2e:	6f6c                	flw	fa1,92(a4)
    5b30:	75253a77          	0x75253a77
    5b34:	7020                	flw	fs0,96(s0)
    5b36:	6572                	flw	fa0,28(sp)
    5b38:	253a                	lhu	a4,10(a0)
    5b3a:	0d75                	addi	s10,s10,29
    5b3c:	000a                	c.slli	zero,0x2
    5b3e:	0000                	unimp
    5b40:	5346                	lw	t1,112(sp)
    5b42:	7220                	flw	fs0,96(a2)
    5b44:	6765                	lui	a4,0x19
    5b46:	696d2073          	csrs	0x696,s10
    5b4a:	30253a73          	csrrc	s4,medeleg,a0
    5b4e:	7832                	flw	fa6,44(sp)
    5b50:	6820                	flw	fs0,80(s0)
    5b52:	30253a63          	0x30253a63
    5b56:	7832                	flw	fa6,44(sp)
    5b58:	6820                	flw	fs0,80(s0)
    5b5a:	30253a73          	csrrc	s4,medeleg,a0
    5b5e:	7834                	flw	fa3,112(s0)
    5b60:	6920                	flw	fs0,80(a0)
    5b62:	6766                	flw	fa4,88(sp)
    5b64:	253a                	lhu	a4,10(a0)
    5b66:	3230                	lbu	a2,3(a2)
    5b68:	2078                	lbu	a4,6(s0)
    5b6a:	7369                	lui	t1,0xffffa
    5b6c:	3a74                	lbu	a3,23(a2)
    5b6e:	3025                	jal	5396 <_printf_i+0x232>
    5b70:	7832                	flw	fa6,44(sp)
    5b72:	7220                	flw	fs0,96(a2)
    5b74:	3a78                	lbu	a4,23(a2)
    5b76:	7525                	lui	a0,0xfffe9
    5b78:	0a0d                	addi	s4,s4,3
    5b7a:	0000                	unimp
    5b7c:	5346                	lw	t1,112(sp)
    5b7e:	6c20                	flw	fs0,88(s0)
    5b80:	7361                	lui	t1,0xffff8
    5b82:	2074                	lbu	a3,6(s0)
    5b84:	6970                	flw	fa2,84(a0)
    5b86:	3a64                	lbu	s1,23(a2)
    5b88:	3025                	jal	53b0 <_printf_i+0x24c>
    5b8a:	7832                	flw	fa6,44(sp)
    5b8c:	7420                	flw	fs0,104(s0)
    5b8e:	253a676f          	jal	a4,ac5e0 <_data_lma+0xa661c>
    5b92:	3230                	lbu	a2,3(a2)
    5b94:	2078                	lbu	a4,6(s0)
    5b96:	6572                	flw	fa0,28(sp)
    5b98:	3a74                	lbu	a3,23(a2)
    5b9a:	3025                	jal	53c2 <_printf_i+0x25e>
    5b9c:	7832                	flw	fa6,44(sp)
    5b9e:	6920                	flw	fs0,80(a0)
    5ba0:	6766                	flw	fa4,88(sp)
    5ba2:	253a                	lhu	a4,10(a0)
    5ba4:	3230                	lbu	a2,3(a2)
    5ba6:	2078                	lbu	a4,6(s0)
    5ba8:	7369                	lui	t1,0xffffa
    5baa:	3a74                	lbu	a3,23(a2)
    5bac:	3025                	jal	53d4 <_printf_i+0x270>
    5bae:	7832                	flw	fa6,44(sp)
    5bb0:	6820                	flw	fs0,80(s0)
    5bb2:	6572                	flw	fa0,28(sp)
    5bb4:	30253a73          	csrrc	s4,medeleg,a0
    5bb8:	7832                	flw	fa6,44(sp)
    5bba:	6e20                	flw	fs0,88(a2)
    5bbc:	6b61                	lui	s6,0x18
    5bbe:	253a                	lhu	a4,10(a0)
    5bc0:	2075                	jal	5c6c <_read+0x614>
    5bc2:	6f74                	flw	fa3,92(a4)
    5bc4:	3a6b6f67          	0x3a6b6f67
    5bc8:	7525                	lui	a0,0xfffe9
    5bca:	7220                	flw	fs0,96(a2)
    5bcc:	3a78                	lbu	a4,23(a2)
    5bce:	7525                	lui	a0,0xfffe9
    5bd0:	7720                	flw	fs0,104(a4)
    5bd2:	6961                	lui	s2,0x18
    5bd4:	3a74                	lbu	a3,23(a2)
    5bd6:	7525                	lui	a0,0xfffe9
    5bd8:	0a0d                	addi	s4,s4,3
    5bda:	0000                	unimp
    5bdc:	74737953          	0x74737953
    5be0:	6d65                	lui	s10,0x19
    5be2:	3a6b6c43          	fmadd.d	fs8,fs6,ft6,ft7,unknown
    5be6:	6425                	lui	s0,0x9
    5be8:	0a0d                	addi	s4,s4,3
    5bea:	0000                	unimp
    5bec:	70696843          	fmadd.s	fa6,fs2,ft6,fa4,unknown
    5bf0:	4449                	li	s0,18
    5bf2:	253a                	lhu	a4,10(a0)
    5bf4:	3830                	lbu	a2,19(s0)
    5bf6:	0d78                	addi	a4,sp,668
    5bf8:	000a                	c.slli	zero,0x2
    5bfa:	0000                	unimp
    5bfc:	5355                	li	t1,-11
    5bfe:	4642                	lw	a2,16(sp)
    5c00:	666f2053          	0x666f2053
    5c04:	6966                	flw	fs2,88(sp)
    5c06:	6c616963          	bltu	sp,t1,62d8 <_data_lma+0x314>
    5c0a:	4820                	lw	s0,80(s0)
    5c0c:	5f54534f          	fnmadd.q	ft6,fs0,fs5,fa1,unknown
    5c10:	50204d4b          	fnmsub.s	fs10,ft0,ft2,fa0,rmm
    5c14:	3241                	jal	5594 <_isatty_r+0x18>
    5c16:	6420                	flw	fs0,72(s0)
    5c18:	6169                	addi	sp,sp,208
    5c1a:	00000d67          	jalr	s10,zero # 0 <_sinit>
    5c1e:	0000                	unimp
    5c20:	4f48                	lw	a0,28(a4)
    5c22:	4b5f5453          	0x4b5f5453
    5c26:	5f4d                	li	t5,-13
    5c28:	5242                	lw	tp,48(sp)
    5c2a:	4449                	li	s0,18
    5c2c:	6d204547          	0x6d204547
    5c30:	6573756f          	jal	a0,3da86 <_data_lma+0x37ac2>
    5c34:	6220                	flw	fs0,64(a2)
    5c36:	6972                	flw	fs2,28(sp)
    5c38:	6764                	flw	fs1,76(a4)
    5c3a:	0d65                	addi	s10,s10,25
    5c3c:	0000                	unimp
    5c3e:	0000                	unimp
    5c40:	4f4c                	lw	a1,28(a4)
    5c42:	69642057          	0x69642057
    5c46:	6572                	flw	fa0,28(sp)
    5c48:	6d207463          	bgeu	zero,s2,6310 <_data_lma+0x34c>
    5c4c:	3a65646f          	jal	s0,5bff2 <_data_lma+0x5602e>
    5c50:	5020                	lw	s0,96(s0)
    5c52:	4552                	lw	a0,20(sp)
    5c54:	303d                	jal	5482 <__swrite+0x1c>
    5c56:	000d                	c.nop	3
    5c58:	5355                	li	t1,-11
    5c5a:	4642                	lw	a2,16(sp)
    5c5c:	6f482053          	0x6f482053
    5c60:	2b207473          	csrrci	s0,0x2b2,0
    5c64:	5520                	lw	s0,104(a0)
    5c66:	54524153          	0x54524153
    5c6a:	2031                	jal	5c76 <_read+0x61e>
    5c6c:	20627573          	csrrci	a0,0x206,4
    5c70:	6e69                	lui	t3,0x1a
    5c72:	7570                	flw	fa2,108(a0)
    5c74:	2074                	lbu	a3,6(s0)
    5c76:	5355202b          	0x5355202b
    5c7a:	4842                	lw	a6,16(sp)
    5c7c:	49482053          	0x49482053
    5c80:	2044                	lbu	s1,4(s0)
    5c82:	7074756f          	jal	a0,4db88 <_data_lma+0x47bc4>
    5c86:	7475                	lui	s0,0xffffd
    5c88:	000d                	c.nop	3
    5c8a:	0000                	unimp
    5c8c:	65726957          	0x65726957
    5c90:	5520                	lw	s0,104(a0)
    5c92:	412d4253          	0x412d4253
    5c96:	203a                	lhu	a4,2(s0)
    5c98:	6572                	flw	fa0,28(sp)
    5c9a:	3d64                	lbu	s1,31(a0)
    5c9c:	5635                	li	a2,-19
    5c9e:	6220                	flw	fs0,64(a2)
    5ca0:	616c                	flw	fa1,68(a0)
    5ca2:	473d6b63          	bltu	s10,s3,6118 <_data_lma+0x154>
    5ca6:	444e                	lw	s0,208(sp)
    5ca8:	7720                	flw	fs0,104(a4)
    5caa:	6968                	flw	fa0,84(a0)
    5cac:	6574                	flw	fa3,76(a0)
    5cae:	503d                	c.li	zero,-17
    5cb0:	3141                	jal	5930 <_read+0x2d8>
    5cb2:	2831                	jal	5cce <_read+0x676>
    5cb4:	2d44                	lbu	s1,28(a0)
    5cb6:	2029                	jal	5cc0 <_read+0x668>
    5cb8:	65657267          	0x65657267
    5cbc:	3d6e                	lhu	a1,62(a0)
    5cbe:	4150                	lw	a2,4(a0)
    5cc0:	3231                	jal	55cc <_lseek_r+0x20>
    5cc2:	4428                	lw	a0,72(s0)
    5cc4:	000d292b          	0xd292b
    5cc8:	4954                	lw	a3,20(a0)
    5cca:	334d                	jal	5a6c <_read+0x414>
    5ccc:	4920                	lw	s0,80(a0)
    5cce:	696e                	flw	fs2,216(sp)
    5cd0:	2074                	lbu	a3,6(s0)
    5cd2:	0d214b4f          	0xd214b4f
    5cd6:	0000                	unimp
    5cd8:	5355                	li	t1,-11
    5cda:	4642                	lw	a2,16(sp)
    5cdc:	6f482053          	0x6f482053
    5ce0:	49207473          	csrrci	s0,0x492,0
    5ce4:	696e                	flw	fs2,216(sp)
    5ce6:	0d74                	addi	a3,sp,668
    5ce8:	0000                	unimp
    5cea:	0000                	unimp
    5cec:	5355                	li	t1,-11
    5cee:	4842                	lw	a6,16(sp)
    5cf0:	6f6d2053          	0x6f6d2053
    5cf4:	7375                	lui	t1,0xffffd
    5cf6:	2065                	jal	5d9e <_read+0x746>
    5cf8:	746e6573          	csrrsi	a0,0x746,28
    5cfc:	6420                	flw	fs0,72(s0)
    5cfe:	3a78                	lbu	a4,23(a2)
    5d00:	6425                	lui	s0,0x9
    5d02:	6420                	flw	fs0,72(s0)
    5d04:	3a79                	jal	56a2 <_read+0x4a>
    5d06:	6425                	lui	s0,0x9
    5d08:	6220                	flw	fs0,64(a2)
    5d0a:	6e74                	flw	fa3,92(a2)
    5d0c:	253a                	lhu	a4,10(a0)
    5d0e:	3230                	lbu	a2,3(a2)
    5d10:	2078                	lbu	a4,6(s0)
    5d12:	253a6877          	0x253a6877
    5d16:	2064                	lbu	s1,6(s0)
    5d18:	3a637273          	csrrci	tp,0x3a6,6
    5d1c:	6325                	lui	t1,0x9
    5d1e:	6325                	lui	t1,0x9
    5d20:	0a0d                	addi	s4,s4,3
    5d22:	0000                	unimp
    5d24:	5355                	li	t1,-11
    5d26:	4842                	lw	a6,16(sp)
    5d28:	6f6d2053          	0x6f6d2053
    5d2c:	7375                	lui	t1,0xffffd
    5d2e:	2065                	jal	5dd6 <_read+0x77e>
    5d30:	6570                	flw	fa2,76(a0)
    5d32:	646e                	flw	fs0,216(sp)
    5d34:	6e69                	lui	t3,0x1a
    5d36:	66632067          	0x66632067
    5d3a:	75253a67          	0x75253a67
    5d3e:	6420                	flw	fs0,72(s0)
    5d40:	3a78                	lbu	a4,23(a2)
    5d42:	6425                	lui	s0,0x9
    5d44:	6420                	flw	fs0,72(s0)
    5d46:	3a79                	jal	56e4 <_read+0x8c>
    5d48:	6425                	lui	s0,0x9
    5d4a:	6220                	flw	fs0,64(a2)
    5d4c:	6e74                	flw	fa3,92(a2)
    5d4e:	253a                	lhu	a4,10(a0)
    5d50:	3230                	lbu	a2,3(a2)
    5d52:	0d78                	addi	a4,sp,668
    5d54:	000a                	c.slli	zero,0x2
    5d56:	0000                	unimp
    5d58:	54415453          	0x54415453
    5d5c:	7520                	flw	fs0,104(a0)
    5d5e:	73686273          	csrrsi	tp,0x736,16
    5d62:	635f 6766 253a      	0x253a6766635f
    5d68:	2075                	jal	5e14 <_read+0x7bc>
    5d6a:	6870                	flw	fa2,84(s0)
    5d6c:	5f79                	li	t5,-2
    5d6e:	3a676663          	bltu	a4,t1,611a <_data_lma+0x156>
    5d72:	7525                	lui	a0,0xfffe9
    5d74:	7020                	flw	fs0,96(s0)
    5d76:	7968                	flw	fa0,116(a0)
    5d78:	725f 7470 253a      	0x253a7470725f
    5d7e:	756c                	flw	fa1,108(a0)
    5d80:	0a0d                	addi	s4,s4,3
    5d82:	0000                	unimp
    5d84:	70657453          	0x70657453
    5d88:	3220                	lbu	s0,3(a2)
    5d8a:	203a                	lhu	a4,2(s0)
    5d8c:	6f74                	flw	fa3,92(a4)
    5d8e:	2070                	lbu	a2,6(s0)
    5d90:	7954                	flw	fa3,52(a0)
    5d92:	6570                	flw	fa2,76(a0)
    5d94:	432d                	li	t1,11
    5d96:	5520                	lw	s0,104(a0)
    5d98:	54524153          	0x54524153
    5d9c:	2031                	jal	5da8 <_read+0x750>
    5d9e:	4150                	lw	a2,4(a0)
    5da0:	2f39                	jal	64be <_data_lma+0x4fa>
    5da2:	4150                	lw	a2,4(a0)
    5da4:	3031                	jal	55b0 <_lseek_r+0x4>
    5da6:	7220                	flw	fs0,96(a2)
    5da8:	6165                	addi	sp,sp,112
    5daa:	7964                	flw	fs1,116(a0)
    5dac:	202c                	lbu	a1,2(s0)
    5dae:	6162                	flw	ft2,24(sp)
    5db0:	6475                	lui	s0,0x1d
    5db2:	253a                	lhu	a4,10(a0)
    5db4:	0d64                	addi	s1,sp,668
    5db6:	000a                	c.slli	zero,0x2
    5db8:	5355                	li	t1,-11
    5dba:	5241                	li	tp,-16
    5dbc:	3154                	lbu	a3,5(a0)
    5dbe:	6120                	flw	fs0,64(a0)
    5dc0:	696c                	flw	fa1,84(a0)
    5dc2:	6576                	flw	fa0,92(sp)
    5dc4:	0a0d                	addi	s4,s4,3
    5dc6:	0000                	unimp
    5dc8:	20425553          	0x20425553
    5dcc:	73206b6f          	jal	s6,c4fe <_data_lma+0x653a>
    5dd0:	7165                	addi	sp,sp,-400
    5dd2:	253a                	lhu	a4,10(a0)
    5dd4:	2075                	jal	5e80 <hs_config_desc+0x8>
    5dd6:	7462                	flw	fs0,56(sp)
    5dd8:	3a6e                	lhu	a1,54(a2)
    5dda:	3025                	jal	5602 <_read_r+0x1e>
    5ddc:	7832                	flw	fa6,44(sp)
    5dde:	6420                	flw	fs0,72(s0)
    5de0:	3a78                	lbu	a4,23(a2)
    5de2:	6425                	lui	s0,0x9
    5de4:	6420                	flw	fs0,72(s0)
    5de6:	3a79                	jal	5784 <_read+0x12c>
    5de8:	6425                	lui	s0,0x9
    5dea:	7720                	flw	fs0,104(a4)
    5dec:	3a68                	lbu	a0,23(a2)
    5dee:	6425                	lui	s0,0x9
    5df0:	0a0d                	addi	s4,s4,3
    5df2:	0000                	unimp
    5df4:	20425553          	0x20425553
    5df8:	63656863          	bltu	a0,s6,6428 <_data_lma+0x464>
    5dfc:	6d75736b          	0x6d75736b
    5e00:	6220                	flw	fs0,64(a2)
    5e02:	6461                	lui	s0,0x18
    5e04:	253a                	lhu	a4,10(a0)
    5e06:	2075                	jal	5eb2 <hs_manu_desc+0x2>
    5e08:	3a746f67          	0x3a746f67
    5e0c:	3025                	jal	5634 <_fstat+0xc>
    5e0e:	7832                	flw	fa6,44(sp)
    5e10:	6320                	flw	fs0,64(a4)
    5e12:	6c61                	lui	s8,0x18
    5e14:	30253a63          	0x30253a63
    5e18:	7832                	flw	fa6,44(sp)
    5e1a:	0a0d                	addi	s4,s4,3
    5e1c:	0000                	unimp
    5e1e:	0000                	unimp
    5e20:	3b0e                	lhu	a1,48(a4)
    5e22:	0000                	unimp
    5e24:	3b3a                	lhu	a4,50(a4)
    5e26:	0000                	unimp
    5e28:	3b3a                	lhu	a4,50(a4)
    5e2a:	0000                	unimp
    5e2c:	3b3a                	lhu	a4,50(a4)
    5e2e:	0000                	unimp
    5e30:	3b3a                	lhu	a4,50(a4)
    5e32:	0000                	unimp
    5e34:	3ac2                	lhu	s0,52(a3)
    5e36:	0000                	unimp
    5e38:	39c6                	lhu	s1,52(a1)
    5e3a:	0000                	unimp
    5e3c:	3b3a                	lhu	a4,50(a4)
    5e3e:	0000                	unimp
    5e40:	3ada                	lhu	a4,52(a3)
    5e42:	0000                	unimp
    5e44:	3ae4                	lbu	s1,23(a3)
    5e46:	0000                	unimp
    5e48:	3b08                	lbu	a0,17(a4)
    5e4a:	0000                	unimp
    5e4c:	3ad6                	lhu	a3,52(a3)
    5e4e:	0000                	unimp
    5e50:	70657453          	0x70657453
    5e54:	3320                	lbu	s0,3(a4)
    5e56:	203a                	lhu	a4,2(s0)
    5e58:	5355                	li	t1,-11
    5e5a:	4842                	lw	a6,16(sp)
    5e5c:	49482053          	0x49482053
    5e60:	2044                	lbu	s1,4(s0)
    5e62:	6f6d                	lui	t5,0x1b
    5e64:	7375                	lui	t1,0xffffd
    5e66:	2065                	jal	5f0e <hs_prod_desc+0x1a>
    5e68:	6564                	flw	fs1,76(a0)
    5e6a:	6976                	flw	fs2,92(sp)
    5e6c:	72206563          	bltu	zero,sp,6596 <_data_lma+0x5d2>
    5e70:	6165                	addi	sp,sp,112
    5e72:	7964                	flw	fs1,116(a0)
    5e74:	000d                	c.nop	3
	...

00005e78 <hs_config_desc>:
    5e78:	0209 0022 0101 a000 0932 0004 0100 0103     ..".....2.......
    5e88:	0002 2109 0111 0100 3422 0700 8105 0403     ...!...."4......
    5e98:	0100 0000                                   ....

00005e9c <hs_device_desc>:
    5e9c:	0112 0200 0000 4000 1a86 fe01 0100 0201     .......@........
    5eac:	0103 0000                                   ....

00005eb0 <hs_manu_desc>:
    5eb0:	030e 0077 0063 0068 002e 0063 006e 0000     ..w.c.h...c.n...

00005ec0 <hs_mouse_report_desc>:
    5ec0:	0105 0209 01a1 0109 00a1 0905 0119 0329     ..............).
    5ed0:	0015 0125 0175 0395 0281 0575 0195 0181     ..%.u.....u.....
    5ee0:	0105 3009 3109 3809 8115 7f25 0875 0395     ...0.1.8..%.u...
    5ef0:	0681 c0c0                                   ....

00005ef4 <hs_prod_desc>:
    5ef4:	031a 0042 0072 0069 0064 0067 0065 0020     ..B.r.i.d.g.e. .
    5f04:	004d 006f 0075 0073 0065 0000               M.o.u.s.e...

00005f10 <hs_qualifier_desc>:
    5f10:	060a 0200 0000 4000 0001 0000               .......@....

00005f1c <hs_ser_desc>:
    5f1c:	030a 0030 0030 0030 0031 0000               ..0.0.0.1...

00005f28 <__sf_fake_stderr>:
	...

00005f48 <__sf_fake_stdin>:
	...

00005f68 <__sf_fake_stdout>:
	...
    5f88:	2d23 2b30 0020 0000 6c68 004c 6665 4567     #-0+ ...hlL.efgE
    5f98:	4746 0000 3130 3332 3534 3736 3938 4241     FG..0123456789AB
    5fa8:	4443 4645 0000 0000 3130 3332 3534 3736     CDEF....01234567
    5fb8:	3938 6261 6463 6665 0000 0000               89abcdef....
